(dp0
S'42441299'
p1
(lp2
(VGRAND LARCENY
p3
I32488
tp4
asS'2765450063'
p5
(lp6
(VGRAND LARCENY
p7
I20186
tp8
a(VFELONY ASSAULT
p9
I24888
tp10
a(VBURGLARY
p11
I30229
tp12
a(VFELONY ASSAULT
p13
I47167
tp14
asS'2762452359'
p15
(lp16
(VFELONY ASSAULT
p17
I10133
tp18
a(VGRAND LARCENY
p19
I17077
tp20
a(VFELONY ASSAULT
p21
I21296
tp22
a(VBURGLARY
p23
I29792
tp24
a(VGRAND LARCENY
p25
I50319
tp26
a(VGRAND LARCENY
p27
I54284
tp28
asS'2762452350'
p29
(lp30
(g17
I10133
tp31
a(g19
I17077
tp32
a(g21
I21296
tp33
a(g23
I29792
tp34
a(g25
I50319
tp35
a(g27
I54284
tp36
asS'2765450702'
p37
(lp38
(VGRAND LARCENY
p39
I2077
tp40
a(VGRAND LARCENY OF MOTOR VEHICLE
p41
I50129
tp42
asS'42441295'
p43
(lp44
(VGRAND LARCENY OF MOTOR VEHICLE
p45
I59385
tp46
asS'3099327964'
p47
(lp48
(VFELONY ASSAULT
p49
I618
tp50
a(VFELONY ASSAULT
p51
I13437
tp52
a(VFELONY ASSAULT
p53
I16803
tp54
a(VFELONY ASSAULT
p55
I20742
tp56
a(VGRAND LARCENY
p57
I32677
tp58
a(VROBBERY
p59
I40208
tp60
a(VGRAND LARCENY
p61
I48695
tp62
a(VGRAND LARCENY
p63
I58368
tp64
asS'2765417386'
p65
(lp66
(VGRAND LARCENY
p67
I1789
tp68
a(VFELONY ASSAULT
p69
I4454
tp70
a(VROBBERY
p71
I12576
tp72
a(VGRAND LARCENY
p73
I25120
tp74
asS'2796453617'
p75
(lp76
(VGRAND LARCENY
p77
I58187
tp78
asS'3099327962'
p79
(lp80
(VROBBERY
p81
I24019
tp82
asS'592002396'
p83
(lp84
(VFELONY ASSAULT
p85
I44760
tp86
asS'1638063665'
p87
(lp88
(VGRAND LARCENY
p89
I24161
tp90
a(VROBBERY
p91
I31424
tp92
a(VFELONY ASSAULT
p93
I31894
tp94
asS'42447206'
p95
(lp96
(VROBBERY
p97
I14528
tp98
a(VROBBERY
p99
I23710
tp100
asS'2761444821'
p101
(lp102
(VFELONY ASSAULT
p103
I19339
tp104
asS'2761520570'
p105
(lp106
(VROBBERY
p107
I22129
tp108
asS'2555971325'
p109
(lp110
(VFELONY ASSAULT
p111
I2064
tp112
a(VFELONY ASSAULT
p113
I10942
tp114
a(VFELONY ASSAULT
p115
I30145
tp116
a(VGRAND LARCENY
p117
I36883
tp118
a(VROBBERY
p119
I56164
tp120
asS'2762329702'
p121
(lp122
(VROBBERY
p123
I7416
tp124
asS'2761722121'
p125
(lp126
(VFELONY ASSAULT
p127
I45384
tp128
asS'2762471609'
p129
(lp130
(VGRAND LARCENY
p131
I60119
tp132
asS'1504153622'
p133
(lp134
(VROBBERY
p135
I48299
tp136
asS'2761668737'
p137
(lp138
(VGRAND LARCENY
p139
I28387
tp140
a(VGRAND LARCENY
p141
I56087
tp142
asS'2762526765'
p143
(lp144
(VBURGLARY
p145
I12065
tp146
asS'42437204'
p147
(lp148
(VGRAND LARCENY
p149
I48966
tp150
asS'2762329563'
p151
(lp152
(g123
I7416
tp153
asS'42439497'
p154
(lp155
(VGRAND LARCENY
p156
I40719
tp157
asS'42439490'
p158
(lp159
(VROBBERY
p160
I23476
tp161
asS'2761395013'
p162
(lp163
(VROBBERY
p164
I5490
tp165
a(VBURGLARY
p166
I50981
tp167
asS'2714244583'
p168
(lp169
(VRAPE
p170
I22731
tp171
a(VROBBERY
p172
I43263
tp173
a(VGRAND LARCENY
p174
I44823
tp175
asS'42429716'
p176
(lp177
(VROBBERY
p178
I15338
tp179
asS'595314122'
p180
(lp181
(VGRAND LARCENY
p182
I31528
tp183
asS'42439498'
p184
(lp185
(VGRAND LARCENY
p186
I32174
tp187
asS'2796453613'
p188
(lp189
(g77
I58187
tp190
asS'2762472144'
p191
(lp192
(VBURGLARY
p193
I42697
tp194
asS'2761772845'
p195
(lp196
(VFELONY ASSAULT
p197
I8563
tp198
a(VFELONY ASSAULT
p199
I16734
tp200
a(VGRAND LARCENY
p201
I29561
tp202
a(VFELONY ASSAULT
p203
I42812
tp204
asS'42435359'
p205
(lp206
(VGRAND LARCENY
p207
I48978
tp208
a(VROBBERY
p209
I59576
tp210
asS'2329939946'
p211
(lp212
(VGRAND LARCENY
p213
I39914
tp214
asS'2329939944'
p215
(lp216
(g213
I39914
tp217
asS'2762575341'
p218
(lp219
(VROBBERY
p220
I16447
tp221
a(VROBBERY
p222
I25984
tp223
a(VGRAND LARCENY
p224
I34842
tp225
a(VGRAND LARCENY
p226
I39324
tp227
asS'2761773161'
p228
(lp229
(VROBBERY
p230
I33521
tp231
asS'42447275'
p232
(lp233
(VFELONY ASSAULT
p234
I23334
tp235
asS'2762328610'
p236
(lp237
(VFELONY ASSAULT
p238
I17220
tp239
a(VROBBERY
p240
I34104
tp241
asS'2761618934'
p242
(lp243
(VFELONY ASSAULT
p244
I32901
tp245
a(VBURGLARY
p246
I37306
tp247
asS'2714246365'
p248
(lp249
(VBURGLARY
p250
I12908
tp251
a(VGRAND LARCENY
p252
I43936
tp253
a(VRAPE
p254
I46219
tp255
asS'2714246366'
p256
(lp257
(g250
I12908
tp258
a(g252
I43936
tp259
a(g254
I46219
tp260
asS'2714246360'
p261
(lp262
(g250
I12908
tp263
a(g252
I43936
tp264
a(g254
I46219
tp265
asS'2714246363'
p266
(lp267
(g250
I12908
tp268
a(g252
I43936
tp269
a(g254
I46219
tp270
asS'2761500178'
p271
(lp272
(VGRAND LARCENY
p273
I56735
tp274
asS'1705982060'
p275
(lp276
(g89
I24161
tp277
a(g91
I31424
tp278
a(g93
I31894
tp279
asS'2762305758'
p280
(lp281
(VBURGLARY
p282
I41539
tp283
asS'2765491920'
p284
(lp285
(VGRAND LARCENY OF MOTOR VEHICLE
p286
I4795
tp287
asS'1705982107'
p288
(lp289
(VRAPE
p290
I32428
tp291
a(VGRAND LARCENY
p292
I37556
tp293
a(VGRAND LARCENY
p294
I40277
tp295
a(VGRAND LARCENY
p296
I40613
tp297
a(VGRAND LARCENY
p298
I58718
tp299
a(VGRAND LARCENY
p300
I59470
tp301
asS'2013622922'
p302
(lp303
(VROBBERY
p304
I136
tp305
a(VGRAND LARCENY
p306
I147
tp307
a(VGRAND LARCENY
p308
I31765
tp309
a(VGRAND LARCENY
p310
I53889
tp311
a(VFELONY ASSAULT
p312
I57489
tp313
a(VROBBERY
p314
I58833
tp315
asS'2761694941'
p316
(lp317
(VGRAND LARCENY OF MOTOR VEHICLE
p318
I13956
tp319
a(VBURGLARY
p320
I19482
tp321
a(VGRAND LARCENY
p322
I21811
tp323
asS'2013622929'
p324
(lp325
(VROBBERY
p326
I14795
tp327
a(VROBBERY
p328
I15693
tp329
a(VGRAND LARCENY
p330
I23244
tp331
a(VROBBERY
p332
I23987
tp333
a(VGRAND LARCENY
p334
I40136
tp335
a(VGRAND LARCENY
p336
I48936
tp337
a(VROBBERY
p338
I59433
tp339
asS'2761499980'
p340
(lp341
(VGRAND LARCENY OF MOTOR VEHICLE
p342
I51186
tp343
a(VGRAND LARCENY
p344
I53299
tp345
asS'2761644476'
p346
(lp347
(VGRAND LARCENY
p348
I41412
tp349
a(VBURGLARY
p350
I51233
tp351
asS'2762572518'
p352
(lp353
(VBURGLARY
p354
I25982
tp355
asS'2714245822'
p356
(lp357
(g145
I12065
tp358
asS'2724292461'
p359
(lp360
(VFELONY ASSAULT
p361
I15951
tp362
a(VBURGLARY
p363
I46226
tp364
asS'2762363127'
p365
(lp366
(VBURGLARY
p367
I34839
tp368
asS'2724292469'
p369
(lp370
(g361
I15951
tp371
a(g363
I46226
tp372
asS'2761520405'
p373
(lp374
(VFELONY ASSAULT
p375
I5261
tp376
a(VGRAND LARCENY
p377
I28395
tp378
asS'2761520404'
p379
(lp380
(VROBBERY
p381
I25839
tp382
a(VGRAND LARCENY OF MOTOR VEHICLE
p383
I47589
tp384
a(VRAPE
p385
I60043
tp386
asS'2761520408'
p387
(lp388
(g107
I22129
tp389
asS'410368051'
p390
(lp391
(VGRAND LARCENY
p392
I7840
tp393
asS'2761694304'
p394
(lp395
(VGRAND LARCENY OF MOTOR VEHICLE
p396
I53688
tp397
a(VGRAND LARCENY
p398
I57191
tp399
asS'2796453877'
p400
(lp401
(VGRAND LARCENY
p402
I51399
tp403
asS'2762535805'
p404
(lp405
(VFELONY ASSAULT
p406
I19953
tp407
asS'2761579608'
p408
(lp409
(VGRAND LARCENY
p410
I11785
tp411
a(VROBBERY
p412
I51486
tp413
asS'2762515015'
p414
(lp415
(VGRAND LARCENY
p416
I58683
tp417
asS'419367582'
p418
(lp419
(VGRAND LARCENY
p420
I472
tp421
a(VGRAND LARCENY
p422
I9267
tp423
a(VGRAND LARCENY
p424
I24831
tp425
a(VGRAND LARCENY
p426
I30789
tp427
asS'2765537176'
p428
(lp429
(VGRAND LARCENY
p430
I10371
tp431
a(VGRAND LARCENY
p432
I49877
tp433
asS'2765491782'
p434
(lp435
(g286
I4795
tp436
asS'2765491784'
p437
(lp438
(g286
I4795
tp439
asS'2762513862'
p440
(lp441
(VGRAND LARCENY OF MOTOR VEHICLE
p442
I34688
tp443
a(VROBBERY
p444
I49871
tp445
a(VBURGLARY
p446
I51665
tp447
asS'419361905'
p448
(lp449
(VROBBERY
p450
I53482
tp451
asS'2765364616'
p452
(lp453
(VGRAND LARCENY
p454
I17574
tp455
a(VGRAND LARCENY
p456
I18389
tp457
a(VRAPE
p458
I29202
tp459
a(VGRAND LARCENY
p460
I38750
tp461
a(VBURGLARY
p462
I52161
tp463
asS'419360624'
p464
(lp465
(VGRAND LARCENY
p466
I54939
tp467
asS'2762451692'
p468
(lp469
(VFELONY ASSAULT
p470
I29042
tp471
asS'2765400152'
p472
(lp473
(VBURGLARY
p474
I13005
tp475
a(VROBBERY
p476
I18906
tp477
a(VROBBERY
p478
I24608
tp479
asS'2762329742'
p480
(lp481
(VGRAND LARCENY
p482
I49809
tp483
asS'419363077'
p484
(lp485
(g244
I32901
tp486
a(g246
I37306
tp487
asS'2761534017'
p488
(lp489
(VGRAND LARCENY
p490
I2343
tp491
a(VFELONY ASSAULT
p492
I38507
tp493
a(VBURGLARY
p494
I51675
tp495
a(VROBBERY
p496
I60041
tp497
asS'2762451219'
p498
(lp499
(VGRAND LARCENY
p500
I8482
tp501
a(VGRAND LARCENY
p502
I9177
tp503
a(VGRAND LARCENY
p504
I12764
tp505
a(VFELONY ASSAULT
p506
I18764
tp507
a(VBURGLARY
p508
I21367
tp509
a(VFELONY ASSAULT
p510
I21369
tp511
a(VBURGLARY
p512
I24442
tp513
a(VFELONY ASSAULT
p514
I53415
tp515
asS'419364095'
p516
(lp517
(VROBBERY
p518
I19249
tp519
a(VFELONY ASSAULT
p520
I19250
tp521
asS'42441895'
p522
(lp523
(VGRAND LARCENY OF MOTOR VEHICLE
p524
I59541
tp525
asS'42433163'
p526
(lp527
(VFELONY ASSAULT
p528
I48438
tp529
asS'42433161'
p530
(lp531
(VROBBERY
p532
I14567
tp533
a(VFELONY ASSAULT
p534
I15798
tp535
asS'2761698391'
p536
(lp537
(g318
I13956
tp538
a(g320
I19482
tp539
a(g322
I21811
tp540
asS'2541754809'
p541
(lp542
(g89
I24161
tp543
a(g91
I31424
tp544
a(g93
I31894
tp545
asS'2767405177'
p546
(lp547
(VFELONY ASSAULT
p548
I2070
tp549
asS'2761773428'
p550
(lp551
(VFELONY ASSAULT
p552
I42494
tp553
asS'2761644685'
p554
(lp555
(VROBBERY
p556
I20527
tp557
a(VGRAND LARCENY
p558
I24349
tp559
asS'2761734727'
p560
(lp561
(VROBBERY
p562
I20052
tp563
asS'2768439523'
p564
(lp565
(VGRAND LARCENY
p566
I54417
tp567
asS'2761734725'
p568
(lp569
(g562
I20052
tp570
asS'2761781360'
p571
(lp572
(VGRAND LARCENY
p573
I9642
tp574
a(VBURGLARY
p575
I37866
tp576
a(VROBBERY
p577
I41218
tp578
a(VGRAND LARCENY
p579
I54280
tp580
a(VGRAND LARCENY
p581
I55008
tp582
asS'42442580'
p583
(lp584
(g135
I48299
tp585
asS'42442557'
p586
(lp587
(VFELONY ASSAULT
p588
I51863
tp589
a(VGRAND LARCENY
p590
I23804
tp591
a(VFELONY ASSAULT
p592
I31879
tp593
asS'2761533999'
p594
(lp595
(g490
I2343
tp596
a(g492
I38507
tp597
a(g494
I51675
tp598
a(g496
I60041
tp599
asS'2765400306'
p600
(lp601
(VGRAND LARCENY OF MOTOR VEHICLE
p602
I12546
tp603
a(VFELONY ASSAULT
p604
I28170
tp605
a(VROBBERY
p606
I32864
tp607
a(VROBBERY
p608
I47466
tp609
asS'2765400304'
p610
(lp611
(g602
I12546
tp612
a(g604
I28170
tp613
a(g606
I32864
tp614
a(g608
I47466
tp615
asS'2761772737'
p616
(lp617
(VBURGLARY
p618
I13605
tp619
a(VGRAND LARCENY
p620
I44563
tp621
asS'2714216753'
p622
(lp623
(VFELONY ASSAULT
p624
I15874
tp625
a(VBURGLARY
p626
I28235
tp627
a(VBURGLARY
p628
I32796
tp629
a(VGRAND LARCENY
p630
I35139
tp631
a(VFELONY ASSAULT
p632
I50836
tp633
a(VGRAND LARCENY
p634
I55014
tp635
a(VFELONY ASSAULT
p636
I55791
tp637
asS'2761781538'
p638
(lp639
(VGRAND LARCENY
p640
I20974
tp641
a(VFELONY ASSAULT
p642
I29736
tp643
a(VGRAND LARCENY
p644
I29947
tp645
a(VROBBERY
p646
I46230
tp647
asS'2765720309'
p648
(lp649
(VGRAND LARCENY
p650
I11045
tp651
a(VGRAND LARCENY OF MOTOR VEHICLE
p652
I42890
tp653
asS'2762514964'
p654
(lp655
(g416
I58683
tp656
asS'2762526655'
p657
(lp658
(VGRAND LARCENY
p659
I2704
tp660
a(VROBBERY
p661
I46841
tp662
asS'2765719954'
p663
(lp664
(g250
I12908
tp665
a(g252
I43936
tp666
a(g254
I46219
tp667
asS'42447199'
p668
(lp669
(VROBBERY
p670
I6551
tp671
a(VGRAND LARCENY
p672
I23411
tp673
a(VFELONY ASSAULT
p674
I23709
tp675
a(VFELONY ASSAULT
p676
I40658
tp677
a(VGRAND LARCENY
p678
I59355
tp679
asS'470209122'
p680
(lp681
(g178
I15338
tp682
asS'2765395033'
p683
(lp684
(VFELONY ASSAULT
p685
I36101
tp686
a(VFELONY ASSAULT
p687
I41615
tp688
a(VFELONY ASSAULT
p689
I53249
tp690
asS'2761395431'
p691
(lp692
(VGRAND LARCENY
p693
I4518
tp694
a(VBURGLARY
p695
I22218
tp696
a(VGRAND LARCENY
p697
I34026
tp698
a(VGRAND LARCENY
p699
I54854
tp700
asS'2761641685'
p701
(lp702
(VRAPE
p703
I12199
tp704
a(VBURGLARY
p705
I18473
tp706
a(VROBBERY
p707
I20241
tp708
asS'42429718'
p709
(lp710
(VGRAND LARCENY OF MOTOR VEHICLE
p711
I31529
tp712
asS'2765395038'
p713
(lp714
(g685
I36101
tp715
a(g687
I41615
tp716
a(g689
I53249
tp717
asS'42439506'
p718
(lp719
(VGRAND LARCENY OF MOTOR VEHICLE
p720
I31520
tp721
asS'1506445821'
p722
(lp723
(VROBBERY
p724
I6804
tp725
a(VGRAND LARCENY
p726
I14548
tp727
a(VROBBERY
p728
I22854
tp729
a(VROBBERY
p730
I23454
tp731
asS'1506445734'
p732
(lp733
(VGRAND LARCENY
p734
I26779
tp735
a(VFELONY ASSAULT
p736
I40602
tp737
asS'2542108169'
p738
(lp739
(VGRAND LARCENY
p740
I5943
tp741
a(VGRAND LARCENY
p742
I59668
tp743
asS'2714217474'
p744
(lp745
(VBURGLARY
p746
I16265
tp747
asS'42435333'
p748
(lp749
(VGRAND LARCENY OF MOTOR VEHICLE
p750
I31757
tp751
asS'2762581690'
p752
(lp753
(VGRAND LARCENY OF MOTOR VEHICLE
p754
I36813
tp755
asS'42443821'
p756
(lp757
(VGRAND LARCENY
p758
I40411
tp759
asS'2762329525'
p760
(lp761
(VGRAND LARCENY
p762
I12591
tp763
a(VROBBERY
p764
I19796
tp765
a(VROBBERY
p766
I41303
tp767
a(VROBBERY
p768
I46773
tp769
asS'2765536877'
p770
(lp771
(VROBBERY
p772
I22803
tp773
asS'2765416071'
p774
(lp775
(VBURGLARY
p776
I44169
tp777
a(VFELONY ASSAULT
p778
I55923
tp779
asS'2762467122'
p780
(lp781
(VGRAND LARCENY
p782
I41380
tp783
a(VROBBERY
p784
I51677
tp785
a(VBURGLARY
p786
I55339
tp787
asS'2761500146'
p788
(lp789
(VGRAND LARCENY
p790
I17977
tp791
asS'42445426'
p792
(lp793
(VROBBERY
p794
I15615
tp795
a(VFELONY ASSAULT
p796
I22910
tp797
asS'2714244272'
p798
(lp799
(VGRAND LARCENY
p800
I4958
tp801
asS'2765467065'
p802
(lp803
(VGRAND LARCENY
p804
I19486
tp805
a(VGRAND LARCENY
p806
I24825
tp807
a(VFELONY ASSAULT
p808
I56165
tp809
asS'2761500148'
p810
(lp811
(g790
I17977
tp812
asS'42435763'
p813
(lp814
(g304
I136
tp815
a(g306
I147
tp816
a(g308
I31765
tp817
a(g310
I53889
tp818
a(g312
I57489
tp819
a(g314
I58833
tp820
asS'42442561'
p821
(lp822
(VGRAND LARCENY
p823
I3779
tp824
asS'2765755884'
p825
(lp826
(g650
I11045
tp827
a(g652
I42890
tp828
asS'42442565'
p829
(lp830
(VFELONY ASSAULT
p831
I15087
tp832
a(VGRAND LARCENY
p833
I58493
tp834
asS'2761663752'
p835
(lp836
(VGRAND LARCENY
p837
I9191
tp838
a(VGRAND LARCENY
p839
I13066
tp840
a(VBURGLARY
p841
I13067
tp842
a(VGRAND LARCENY
p843
I13683
tp844
a(VBURGLARY
p845
I19944
tp846
a(VGRAND LARCENY
p847
I36382
tp848
a(VGRAND LARCENY
p849
I41454
tp850
a(VBURGLARY
p851
I44642
tp852
a(VBURGLARY
p853
I51054
tp854
asS'2761593994'
p855
(lp856
(VGRAND LARCENY
p857
I12615
tp858
a(VGRAND LARCENY
p859
I20118
tp860
a(VFELONY ASSAULT
p861
I57730
tp862
asS'2762351737'
p863
(lp864
(VROBBERY
p865
I12918
tp866
a(VROBBERY
p867
I18828
tp868
a(VFELONY ASSAULT
p869
I34024
tp870
a(VGRAND LARCENY
p871
I38995
tp872
asS'2761502175'
p873
(lp874
(VGRAND LARCENY
p875
I19404
tp876
asS'2761502174'
p877
(lp878
(g875
I19404
tp879
asS'2339801785'
p880
(lp881
(VGRAND LARCENY
p882
I47930
tp883
asS'2761502176'
p884
(lp885
(g875
I19404
tp886
asS'2762425921'
p887
(lp888
(VROBBERY
p889
I5395
tp890
a(VFELONY ASSAULT
p891
I42188
tp892
asS'2765400055'
p893
(lp894
(VBURGLARY
p895
I26286
tp896
a(VGRAND LARCENY
p897
I49958
tp898
a(VROBBERY
p899
I56017
tp900
asS'2714245907'
p901
(lp902
(g145
I12065
tp903
asS'2761822994'
p904
(lp905
(VGRAND LARCENY
p906
I4067
tp907
a(VGRAND LARCENY
p908
I11226
tp909
a(VBURGLARY
p910
I12575
tp911
asS'1825848790'
p912
(lp913
(g381
I25839
tp914
a(g383
I47589
tp915
a(g385
I60043
tp916
asS'2765415494'
p917
(lp918
(g67
I1789
tp919
a(g69
I4454
tp920
a(g71
I12576
tp921
a(g73
I25120
tp922
asS'2762514056'
p923
(lp924
(g442
I34688
tp925
a(g444
I49871
tp926
a(g446
I51665
tp927
asS'42441913'
p928
(lp929
(VROBBERY
p930
I14668
tp931
a(VGRAND LARCENY
p932
I15026
tp933
asS'2762566643'
p934
(lp935
(VFELONY ASSAULT
p936
I53293
tp937
asS'42441263'
p938
(lp939
(g182
I31528
tp940
asS'2761578600'
p941
(lp942
(g693
I4518
tp943
a(g695
I22218
tp944
a(g697
I34026
tp945
a(g699
I54854
tp946
asS'42429712'
p947
(lp948
(VROBBERY
p949
I24245
tp950
asS'2339998103'
p951
(lp952
(g906
I4067
tp953
a(g908
I11226
tp954
a(g910
I12575
tp955
asS'2761704368'
p956
(lp957
(VFELONY ASSAULT
p958
I54359
tp959
asS'2761772841'
p960
(lp961
(g197
I8563
tp962
a(g199
I16734
tp963
a(g201
I29561
tp964
a(g203
I42812
tp965
asS'42441283'
p966
(lp967
(VGRAND LARCENY
p968
I41080
tp969
a(VGRAND LARCENY
p970
I58606
tp971
asS'419365943'
p972
(lp973
(VROBBERY
p974
I11012
tp975
a(VROBBERY
p976
I32945
tp977
asS'2765364275'
p978
(lp979
(VGRAND LARCENY
p980
I5543
tp981
a(VGRAND LARCENY
p982
I37634
tp983
a(VROBBERY
p984
I39398
tp985
a(VGRAND LARCENY
p986
I42818
tp987
a(VBURGLARY
p988
I45454
tp989
asS'2761517048'
p990
(lp991
(g490
I2343
tp992
a(g492
I38507
tp993
a(g494
I51675
tp994
a(g496
I60041
tp995
asS'2762535811'
p996
(lp997
(g406
I19953
tp998
asS'2762535810'
p999
(lp1000
(VFELONY ASSAULT
p1001
I13689
tp1002
a(VROBBERY
p1003
I42573
tp1004
asS'2714245850'
p1005
(lp1006
(g145
I12065
tp1007
asS'42443824'
p1008
(lp1009
(VGRAND LARCENY
p1010
I14608
tp1011
asS'42432889'
p1012
(lp1013
(VBURGLARY
p1014
I48768
tp1015
asS'42437920'
p1016
(lp1017
(VGRAND LARCENY
p1018
I24048
tp1019
asS'2761499976'
p1020
(lp1021
(g342
I51186
tp1022
a(g344
I53299
tp1023
asS'2761499977'
p1024
(lp1025
(g342
I51186
tp1026
a(g344
I53299
tp1027
asS'42437142'
p1028
(lp1029
(VGRAND LARCENY OF MOTOR VEHICLE
p1030
I58955
tp1031
asS'2761499973'
p1032
(lp1033
(g342
I51186
tp1034
a(g344
I53299
tp1035
asS'2761499970'
p1036
(lp1037
(g342
I51186
tp1038
a(g344
I53299
tp1039
asS'2761694312'
p1040
(lp1041
(g396
I53688
tp1042
a(g398
I57191
tp1043
asS'42437211'
p1044
(lp1045
(VROBBERY
p1046
I14915
tp1047
asS'42449427'
p1048
(lp1049
(VGRAND LARCENY
p1050
I39742
tp1051
a(VGRAND LARCENY
p1052
I58645
tp1053
asS'2762526752'
p1054
(lp1055
(g145
I12065
tp1056
asS'2762554738'
p1057
(lp1058
(VGRAND LARCENY
p1059
I5339
tp1060
a(VBURGLARY
p1061
I17899
tp1062
a(VGRAND LARCENY
p1063
I26361
tp1064
a(VROBBERY
p1065
I56093
tp1066
asS'2762526755'
p1067
(lp1068
(g145
I12065
tp1069
asS'2762526756'
p1070
(lp1071
(g145
I12065
tp1072
asS'42443817'
p1073
(lp1074
(VROBBERY
p1075
I3057
tp1076
asS'42437218'
p1077
(lp1078
(VROBBERY
p1079
I40819
tp1080
asS'2714244380'
p1081
(lp1082
(g170
I22731
tp1083
a(g172
I43263
tp1084
a(g174
I44823
tp1085
asS'2765322674'
p1086
(lp1087
(VGRAND LARCENY
p1088
I30298
tp1089
asS'42429727'
p1090
(lp1091
(g81
I24019
tp1092
asS'1748991482'
p1093
(lp1094
(VFELONY ASSAULT
p1095
I1799
tp1096
asS'2761734659'
p1097
(lp1098
(VROBBERY
p1099
I22461
tp1100
a(VGRAND LARCENY
p1101
I34332
tp1102
asS'2761772857'
p1103
(lp1104
(g197
I8563
tp1105
a(g199
I16734
tp1106
a(g201
I29561
tp1107
a(g203
I42812
tp1108
asS'2761593854'
p1109
(lp1110
(g857
I12615
tp1111
a(g859
I20118
tp1112
a(g861
I57730
tp1113
asS'2761517031'
p1114
(lp1115
(g490
I2343
tp1116
a(g492
I38507
tp1117
a(g494
I51675
tp1118
a(g496
I60041
tp1119
asS'419362717'
p1120
(lp1121
(g89
I24161
tp1122
a(g91
I31424
tp1123
a(g93
I31894
tp1124
asS'2141026510'
p1125
(lp1126
(VGRAND LARCENY
p1127
I59266
tp1128
asS'2762514711'
p1129
(lp1130
(g416
I58683
tp1131
asS'42443088'
p1132
(lp1133
(VROBBERY
p1134
I32016
tp1135
asS'2761772912'
p1136
(lp1137
(g197
I8563
tp1138
a(g199
I16734
tp1139
a(g201
I29561
tp1140
a(g203
I42812
tp1141
asS'42439855'
p1142
(lp1143
(g1127
I59266
tp1144
asS'2555972163'
p1145
(lp1146
(VGRAND LARCENY
p1147
I39065
tp1148
a(VBURGLARY
p1149
I55325
tp1150
asS'2555972160'
p1151
(lp1152
(g1147
I39065
tp1153
a(g1149
I55325
tp1154
asS'2762526051'
p1155
(lp1156
(VROBBERY
p1157
I50841
tp1158
a(VFELONY ASSAULT
p1159
I56544
tp1160
asS'2761495719'
p1161
(lp1162
(g342
I51186
tp1163
a(g344
I53299
tp1164
asS'2762581709'
p1165
(lp1166
(g754
I36813
tp1167
asS'2761694946'
p1168
(lp1169
(g318
I13956
tp1170
a(g320
I19482
tp1171
a(g322
I21811
tp1172
asS'2714246351'
p1173
(lp1174
(g250
I12908
tp1175
a(g252
I43936
tp1176
a(g254
I46219
tp1177
asS'2714246356'
p1178
(lp1179
(g250
I12908
tp1180
a(g252
I43936
tp1181
a(g254
I46219
tp1182
asS'2714246357'
p1183
(lp1184
(g250
I12908
tp1185
a(g252
I43936
tp1186
a(g254
I46219
tp1187
asS'42456110'
p1188
(lp1189
(VGRAND LARCENY
p1190
I48466
tp1191
asS'42456115'
p1192
(lp1193
(VGRAND LARCENY
p1194
I31370
tp1195
a(VROBBERY
p1196
I58434
tp1197
asS'2762572890'
p1198
(lp1199
(g220
I16447
tp1200
a(g222
I25984
tp1201
a(g224
I34842
tp1202
a(g226
I39324
tp1203
asS'2761533777'
p1204
(lp1205
(VBURGLARY
p1206
I5174
tp1207
a(VFELONY ASSAULT
p1208
I55262
tp1209
asS'2761499982'
p1210
(lp1211
(g342
I51186
tp1212
a(g344
I53299
tp1213
asS'42435231'
p1214
(lp1215
(VGRAND LARCENY
p1216
I31382
tp1217
asS'42435234'
p1218
(lp1219
(VGRAND LARCENY
p1220
I48887
tp1221
asS'42435331'
p1222
(lp1223
(VFELONY ASSAULT
p1224
I58719
tp1225
asS'2768450241'
p1226
(lp1227
(VGRAND LARCENY OF MOTOR VEHICLE
p1228
I47159
tp1229
asS'42435335'
p1230
(lp1231
(g326
I14795
tp1232
a(g328
I15693
tp1233
a(g330
I23244
tp1234
a(g332
I23987
tp1235
a(g334
I40136
tp1236
a(g336
I48936
tp1237
a(g338
I59433
tp1238
asS'2762452361'
p1239
(lp1240
(g17
I10133
tp1241
a(g19
I17077
tp1242
a(g21
I21296
tp1243
a(g23
I29792
tp1244
a(g25
I50319
tp1245
a(g27
I54284
tp1246
asS'2762344956'
p1247
(lp1248
(VFELONY ASSAULT
p1249
I13516
tp1250
a(VROBBERY
p1251
I17651
tp1252
a(VGRAND LARCENY
p1253
I53901
tp1254
asS'2762575325'
p1255
(lp1256
(g220
I16447
tp1257
a(g222
I25984
tp1258
a(g224
I34842
tp1259
a(g226
I39324
tp1260
asS'2762565154'
p1261
(lp1262
(g193
I42697
tp1263
asS'1638063643'
p1264
(lp1265
(VGRAND LARCENY
p1266
I2369
tp1267
a(VGRAND LARCENY
p1268
I15110
tp1269
a(VGRAND LARCENY
p1270
I23976
tp1271
a(VGRAND LARCENY
p1272
I48332
tp1273
asS'1061531802'
p1274
(lp1275
(g740
I5943
tp1276
a(g742
I59668
tp1277
asS'2761694315'
p1278
(lp1279
(g396
I53688
tp1280
a(g398
I57191
tp1281
asS'42443426'
p1282
(lp1283
(VROBBERY
p1284
I31761
tp1285
asS'2761520431'
p1286
(lp1287
(g381
I25839
tp1288
a(g383
I47589
tp1289
a(g385
I60043
tp1290
asS'2555971167'
p1291
(lp1292
(g111
I2064
tp1293
a(g113
I10942
tp1294
a(g115
I30145
tp1295
a(g117
I36883
tp1296
a(g119
I56164
tp1297
asS'2762395377'
p1298
(lp1299
(VROBBERY
p1300
I50325
tp1301
a(VGRAND LARCENY OF MOTOR VEHICLE
p1302
I56806
tp1303
asS'2761694319'
p1304
(lp1305
(g396
I53688
tp1306
a(g398
I57191
tp1307
asS'2541754744'
p1308
(lp1309
(VGRAND LARCENY
p1310
I58818
tp1311
asS'2761734436'
p1312
(lp1313
(VROBBERY
p1314
I33271
tp1315
a(VGRAND LARCENY
p1316
I44329
tp1317
a(VGRAND LARCENY
p1318
I44834
tp1319
a(VBURGLARY
p1320
I50128
tp1321
a(VFELONY ASSAULT
p1322
I52803
tp1323
a(VROBBERY
p1324
I53693
tp1325
a(VFELONY ASSAULT
p1326
I55494
tp1327
asS'2765492759'
p1328
(lp1329
(VGRAND LARCENY
p1330
I3069
tp1331
a(VGRAND LARCENY
p1332
I16361
tp1333
a(VFELONY ASSAULT
p1334
I53689
tp1335
asS'2541754749'
p1336
(lp1337
(g734
I26779
tp1338
a(g736
I40602
tp1339
asS'42450061'
p1340
(lp1341
(VFELONY ASSAULT
p1342
I32020
tp1343
asS'2714245832'
p1344
(lp1345
(g145
I12065
tp1346
asS'2765416708'
p1347
(lp1348
(VROBBERY
p1349
I8659
tp1350
a(VFELONY ASSAULT
p1351
I17843
tp1352
a(VBURGLARY
p1353
I47532
tp1354
a(VGRAND LARCENY
p1355
I60040
tp1356
asS'2765416700'
p1357
(lp1358
(g1349
I8659
tp1359
a(g1351
I17843
tp1360
a(g1353
I47532
tp1361
a(g1355
I60040
tp1362
asS'2339792469'
p1363
(lp1364
(g1249
I13516
tp1365
a(g1251
I17651
tp1366
a(g1253
I53901
tp1367
asS'2761499922'
p1368
(lp1369
(g875
I19404
tp1370
asS'42428799'
p1371
(lp1372
(g1310
I58818
tp1373
asS'42437177'
p1374
(lp1375
(VFELONY ASSAULT
p1376
I24078
tp1377
a(VFELONY ASSAULT
p1378
I31488
tp1379
a(VROBBERY
p1380
I40170
tp1381
a(VGRAND LARCENY
p1382
I48863
tp1383
a(VGRAND LARCENY
p1384
I59794
tp1385
asS'419367391'
p1386
(lp1387
(VGRAND LARCENY OF MOTOR VEHICLE
p1388
I13758
tp1389
a(VFELONY ASSAULT
p1390
I18290
tp1391
a(VBURGLARY
p1392
I25764
tp1393
a(VGRAND LARCENY
p1394
I49649
tp1395
asS'2765492287'
p1396
(lp1397
(VFELONY ASSAULT
p1398
I21730
tp1399
a(VGRAND LARCENY OF MOTOR VEHICLE
p1400
I34830
tp1401
a(VGRAND LARCENY
p1402
I36035
tp1403
a(VBURGLARY
p1404
I41684
tp1405
asS'42443085'
p1406
(lp1407
(VROBBERY
p1408
I23165
tp1409
a(VROBBERY
p1410
I31863
tp1411
asS'2762466942'
p1412
(lp1413
(VFELONY ASSAULT
p1414
I8661
tp1415
a(VROBBERY
p1416
I34706
tp1417
asS'2761503524'
p1418
(lp1419
(VGRAND LARCENY
p1420
I46231
tp1421
asS'42441254'
p1422
(lp1423
(VGRAND LARCENY
p1424
I14779
tp1425
asS'42441257'
p1426
(lp1427
(g213
I39914
tp1428
asS'2762329612'
p1429
(lp1430
(g123
I7416
tp1431
asS'2761394671'
p1432
(lp1433
(VGRAND LARCENY
p1434
I22606
tp1435
a(VGRAND LARCENY
p1436
I34108
tp1437
asS'2761734323'
p1438
(lp1439
(VGRAND LARCENY
p1440
I27591
tp1441
a(VFELONY ASSAULT
p1442
I36990
tp1443
asS'2765483350'
p1444
(lp1445
(VGRAND LARCENY
p1446
I29523
tp1447
a(VFELONY ASSAULT
p1448
I30296
tp1449
asS'2761734443'
p1450
(lp1451
(g1314
I33271
tp1452
a(g1316
I44329
tp1453
a(g1318
I44834
tp1454
a(g1320
I50128
tp1455
a(g1322
I52803
tp1456
a(g1324
I53693
tp1457
a(g1326
I55494
tp1458
asS'2765364280'
p1459
(lp1460
(g980
I5543
tp1461
a(g982
I37634
tp1462
a(g984
I39398
tp1463
a(g986
I42818
tp1464
a(g988
I45454
tp1465
asS'2765364282'
p1466
(lp1467
(g980
I5543
tp1468
a(g982
I37634
tp1469
a(g984
I39398
tp1470
a(g986
I42818
tp1471
a(g988
I45454
tp1472
asS'42431187'
p1473
(lp1474
(VGRAND LARCENY
p1475
I6378
tp1476
asS'42431186'
p1477
(lp1478
(VGRAND LARCENY
p1479
I7153
tp1480
a(VROBBERY
p1481
I31310
tp1482
a(VGRAND LARCENY
p1483
I31358
tp1484
asS'2541754811'
p1485
(lp1486
(g1266
I2369
tp1487
a(g1268
I15110
tp1488
a(g1270
I23976
tp1489
a(g1272
I48332
tp1490
asS'2762575588'
p1491
(lp1492
(g754
I36813
tp1493
asS'2141026497'
p1494
(lp1495
(VGRAND LARCENY
p1496
I6692
tp1497
asS'42434895'
p1498
(lp1499
(VGRAND LARCENY
p1500
I59188
tp1501
asS'2762452373'
p1502
(lp1503
(g17
I10133
tp1504
a(g19
I17077
tp1505
a(g21
I21296
tp1506
a(g23
I29792
tp1507
a(g25
I50319
tp1508
a(g27
I54284
tp1509
asS'2765450769'
p1510
(lp1511
(VFELONY ASSAULT
p1512
I47104
tp1513
asS'2761552454'
p1514
(lp1515
(VBURGLARY
p1516
I38574
tp1517
asS'419363719'
p1518
(lp1519
(VGRAND LARCENY
p1520
I2859
tp1521
a(VFELONY ASSAULT
p1522
I34678
tp1523
a(VROBBERY
p1524
I35842
tp1525
asS'2765417005'
p1526
(lp1527
(VGRAND LARCENY OF MOTOR VEHICLE
p1528
I7417
tp1529
a(VROBBERY
p1530
I8569
tp1531
a(VBURGLARY
p1532
I30533
tp1533
a(VGRAND LARCENY
p1534
I59969
tp1535
asS'42431118'
p1536
(lp1537
(VGRAND LARCENY
p1538
I40394
tp1539
asS'2761829959'
p1540
(lp1541
(VROBBERY
p1542
I29345
tp1543
a(VFELONY ASSAULT
p1544
I35549
tp1545
a(VROBBERY
p1546
I46561
tp1547
a(VROBBERY
p1548
I50838
tp1549
asS'2307217295'
p1550
(lp1551
(VBURGLARY
p1552
I20468
tp1553
asS'2307217293'
p1554
(lp1555
(VGRAND LARCENY
p1556
I12140
tp1557
asS'2714180435'
p1558
(lp1559
(VROBBERY
p1560
I35693
tp1561
asS'2761578579'
p1562
(lp1563
(g693
I4518
tp1564
a(g695
I22218
tp1565
a(g697
I34026
tp1566
a(g699
I54854
tp1567
asS'2762329724'
p1568
(lp1569
(g123
I7416
tp1570
asS'2762452381'
p1571
(lp1572
(g17
I10133
tp1573
a(g19
I17077
tp1574
a(g21
I21296
tp1575
a(g23
I29792
tp1576
a(g25
I50319
tp1577
a(g27
I54284
tp1578
asS'2761534372'
p1579
(lp1580
(g375
I5261
tp1581
a(g377
I28395
tp1582
asS'2765719941'
p1583
(lp1584
(g250
I12908
tp1585
a(g252
I43936
tp1586
a(g254
I46219
tp1587
asS'2762526665'
p1588
(lp1589
(g659
I2704
tp1590
a(g661
I46841
tp1591
asS'1504153604'
p1592
(lp1593
(g734
I26779
tp1594
a(g736
I40602
tp1595
asS'2762472099'
p1596
(lp1597
(VROBBERY
p1598
I18952
tp1599
a(VFELONY ASSAULT
p1600
I41450
tp1601
asS'2762581688'
p1602
(lp1603
(g754
I36813
tp1604
asS'2761395423'
p1605
(lp1606
(g693
I4518
tp1607
a(g695
I22218
tp1608
a(g697
I34026
tp1609
a(g699
I54854
tp1610
asS'2761734667'
p1611
(lp1612
(g1099
I22461
tp1613
a(g1101
I34332
tp1614
asS'2761579084'
p1615
(lp1616
(VFELONY ASSAULT
p1617
I51807
tp1618
asS'1695379690'
p1619
(lp1620
(VROBBERY
p1621
I12831
tp1622
asS'2761734749'
p1623
(lp1624
(g562
I20052
tp1625
asS'2761500147'
p1626
(lp1627
(g790
I17977
tp1628
asS'645106863'
p1629
(lp1630
(VRAPE
p1631
I31650
tp1632
a(VGRAND LARCENY
p1633
I40032
tp1634
a(VGRAND LARCENY
p1635
I40269
tp1636
a(VGRAND LARCENY
p1637
I58734
tp1638
asS'2762571681'
p1639
(lp1640
(g936
I53293
tp1641
asS'2765520470'
p1642
(lp1643
(VGRAND LARCENY
p1644
I10710
tp1645
asS'2762363220'
p1646
(lp1647
(g367
I34839
tp1648
asS'42447295'
p1649
(lp1650
(VGRAND LARCENY
p1651
I59737
tp1652
asS'2796440473'
p1653
(lp1654
(VBURGLARY
p1655
I17659
tp1656
a(VBURGLARY
p1657
I53007
tp1658
asS'3099326116'
p1659
(lp1660
(VGRAND LARCENY
p1661
I58437
tp1662
asS'2714217228'
p1663
(lp1664
(VGRAND LARCENY
p1665
I19788
tp1666
a(VFELONY ASSAULT
p1667
I25181
tp1668
a(VGRAND LARCENY
p1669
I44174
tp1670
asS'2762395230'
p1671
(lp1672
(VFELONY ASSAULT
p1673
I8582
tp1674
a(VROBBERY
p1675
I45114
tp1676
a(VBURGLARY
p1677
I57643
tp1678
asS'2765492249'
p1679
(lp1680
(g1398
I21730
tp1681
a(g1400
I34830
tp1682
a(g1402
I36035
tp1683
a(g1404
I41684
tp1684
asS'419361953'
p1685
(lp1686
(g532
I14567
tp1687
a(g534
I15798
tp1688
asS'2761500150'
p1689
(lp1690
(g790
I17977
tp1691
asS'2761500153'
p1692
(lp1693
(g790
I17977
tp1694
asS'1807940791'
p1695
(lp1696
(VROBBERY
p1697
I24171
tp1698
asS'2761500154'
p1699
(lp1700
(g790
I17977
tp1701
asS'2761500157'
p1702
(lp1703
(g790
I17977
tp1704
asS'2761500156'
p1705
(lp1706
(g790
I17977
tp1707
asS'2099150501'
p1708
(lp1709
(VFELONY ASSAULT
p1710
I32475
tp1711
asS'2762443771'
p1712
(lp1713
(VROBBERY
p1714
I55835
tp1715
asS'42442555'
p1716
(lp1717
(VGRAND LARCENY
p1718
I23643
tp1719
asS'2761499968'
p1720
(lp1721
(g342
I51186
tp1722
a(g344
I53299
tp1723
asS'2296577465'
p1724
(lp1725
(g1500
I59188
tp1726
asS'2762351723'
p1727
(lp1728
(VROBBERY
p1729
I10136
tp1730
a(VROBBERY
p1731
I28755
tp1732
a(VGRAND LARCENY OF MOTOR VEHICLE
p1733
I38195
tp1734
a(VFELONY ASSAULT
p1735
I39138
tp1736
a(VGRAND LARCENY
p1737
I42562
tp1738
a(VFELONY ASSAULT
p1739
I43752
tp1740
a(VFELONY ASSAULT
p1741
I53030
tp1742
asS'2761516436'
p1743
(lp1744
(g103
I19339
tp1745
asS'2761781031'
p1746
(lp1747
(VGRAND LARCENY
p1748
I46295
tp1749
asS'2761502171'
p1750
(lp1751
(g875
I19404
tp1752
asS'2762565164'
p1753
(lp1754
(g193
I42697
tp1755
asS'2761380499'
p1756
(lp1757
(g1434
I22606
tp1758
a(g1436
I34108
tp1759
asS'2714226198'
p1760
(lp1761
(VGRAND LARCENY
p1762
I49720
tp1763
asS'2762513770'
p1764
(lp1765
(g1598
I18952
tp1766
a(g1600
I41450
tp1767
asS'419366878'
p1768
(lp1769
(VGRAND LARCENY
p1770
I21666
tp1771
a(VGRAND LARCENY
p1772
I22376
tp1773
asS'2714245892'
p1774
(lp1775
(g145
I12065
tp1776
asS'2765734090'
p1777
(lp1778
(VGRAND LARCENY OF MOTOR VEHICLE
p1779
I38427
tp1780
a(VGRAND LARCENY
p1781
I39579
tp1782
a(VFELONY ASSAULT
p1783
I52632
tp1784
asS'2761694328'
p1785
(lp1786
(g396
I53688
tp1787
a(g398
I57191
tp1788
asS'2339797283'
p1789
(lp1790
(g882
I47930
tp1791
asS'2761694327'
p1792
(lp1793
(g396
I53688
tp1794
a(g398
I57191
tp1795
asS'2761694323'
p1796
(lp1797
(g396
I53688
tp1798
a(g398
I57191
tp1799
asS'42443413'
p1800
(lp1801
(VGRAND LARCENY
p1802
I23834
tp1803
a(VFELONY ASSAULT
p1804
I32258
tp1805
asS'2762566653'
p1806
(lp1807
(g936
I53293
tp1808
asS'2761822793'
p1809
(lp1810
(g552
I42494
tp1811
asS'2541754670'
p1812
(lp1813
(VROBBERY
p1814
I22995
tp1815
asS'42428742'
p1816
(lp1817
(g89
I24161
tp1818
a(g91
I31424
tp1819
a(g93
I31894
tp1820
asS'2762526681'
p1821
(lp1822
(g659
I2704
tp1823
a(g661
I46841
tp1824
asS'42433743'
p1825
(lp1826
(VFELONY ASSAULT
p1827
I23631
tp1828
asS'2762525716'
p1829
(lp1830
(g1157
I50841
tp1831
a(g1159
I56544
tp1832
asS'2765483156'
p1833
(lp1834
(VFELONY ASSAULT
p1835
I2149
tp1836
asS'3208415302'
p1837
(lp1838
(g1446
I29523
tp1839
a(g1448
I30296
tp1840
asS'2761593853'
p1841
(lp1842
(g857
I12615
tp1843
a(g859
I20118
tp1844
a(g861
I57730
tp1845
asS'2762581706'
p1846
(lp1847
(g754
I36813
tp1848
asS'2714245867'
p1849
(lp1850
(g145
I12065
tp1851
asS'2765537211'
p1852
(lp1853
(g430
I10371
tp1854
a(g432
I49877
tp1855
asS'2714245864'
p1856
(lp1857
(g145
I12065
tp1858
asS'2762470904'
p1859
(lp1860
(VROBBERY
p1861
I5253
tp1862
a(VGRAND LARCENY
p1863
I9258
tp1864
a(VBURGLARY
p1865
I34247
tp1866
a(VROBBERY
p1867
I46847
tp1868
asS'419366834'
p1869
(lp1870
(g1194
I31370
tp1871
a(g1196
I58434
tp1872
asS'592002270'
p1873
(lp1874
(VROBBERY
p1875
I23143
tp1876
asS'2761704375'
p1877
(lp1878
(g958
I54359
tp1879
asS'595314037'
p1880
(lp1881
(VGRAND LARCENY OF MOTOR VEHICLE
p1882
I46076
tp1883
asS'2714226275'
p1884
(lp1885
(VROBBERY
p1886
I45383
tp1887
a(VFELONY ASSAULT
p1888
I51248
tp1889
asS'2765364264'
p1890
(lp1891
(g980
I5543
tp1892
a(g982
I37634
tp1893
a(g984
I39398
tp1894
a(g986
I42818
tp1895
a(g988
I45454
tp1896
asS'42437918'
p1897
(lp1898
(VROBBERY
p1899
I35668
tp1900
asS'2761407749'
p1901
(lp1902
(VFELONY ASSAULT
p1903
I19862
tp1904
a(VBURGLARY
p1905
I22221
tp1906
a(VGRAND LARCENY
p1907
I34702
tp1908
a(VGRAND LARCENY
p1909
I38350
tp1910
asS'42437916'
p1911
(lp1912
(VGRAND LARCENY
p1913
I3068
tp1914
asS'2339709716'
p1915
(lp1916
(VBURGLARY
p1917
I26623
tp1918
asS'2765322556'
p1919
(lp1920
(VBURGLARY
p1921
I17578
tp1922
a(VGRAND LARCENY
p1923
I26067
tp1924
asS'2339993122'
p1925
(lp1926
(g618
I13605
tp1927
a(g620
I44563
tp1928
asS'2761499967'
p1929
(lp1930
(g342
I51186
tp1931
a(g344
I53299
tp1932
asS'2761499966'
p1933
(lp1934
(g342
I51186
tp1935
a(g344
I53299
tp1936
asS'2765733656'
p1937
(lp1938
(g1001
I13689
tp1939
a(g1003
I42573
tp1940
asS'2767405191'
p1941
(lp1942
(g548
I2070
tp1943
asS'2765719061'
p1944
(lp1945
(VFELONY ASSAULT
p1946
I4169
tp1947
a(VFELONY ASSAULT
p1948
I22112
tp1949
a(VFELONY ASSAULT
p1950
I35411
tp1951
asS'42429732'
p1952
(lp1953
(g1496
I6692
tp1954
asS'1061531815'
p1955
(lp1956
(g89
I24161
tp1957
a(g91
I31424
tp1958
a(g93
I31894
tp1959
asS'42436627'
p1960
(lp1961
(VROBBERY
p1962
I14614
tp1963
a(VFELONY ASSAULT
p1964
I40059
tp1965
asS'2761503410'
p1966
(lp1967
(g790
I17977
tp1968
asS'2761503403'
p1969
(lp1970
(g790
I17977
tp1971
asS'2761678124'
p1972
(lp1973
(VGRAND LARCENY
p1974
I4529
tp1975
a(VGRAND LARCENY
p1976
I9195
tp1977
a(VBURGLARY
p1978
I17286
tp1979
a(VBURGLARY
p1980
I17839
tp1981
a(VGRAND LARCENY
p1982
I30696
tp1983
a(VFELONY ASSAULT
p1984
I51594
tp1985
a(VGRAND LARCENY
p1986
I60038
tp1987
asS'2141026506'
p1988
(lp1989
(g1014
I48768
tp1990
asS'2141026500'
p1991
(lp1992
(VFELONY ASSAULT
p1993
I31567
tp1994
asS'2714230739'
p1995
(lp1996
(VROBBERY
p1997
I5186
tp1998
a(VFELONY ASSAULT
p1999
I18335
tp2000
a(VGRAND LARCENY
p2001
I42203
tp2002
a(VFELONY ASSAULT
p2003
I46863
tp2004
a(VFELONY ASSAULT
p2005
I55944
tp2006
asS'42428770'
p2007
(lp2008
(g1814
I22995
tp2009
asS'2761495703'
p2010
(lp2011
(g342
I51186
tp2012
a(g344
I53299
tp2013
asS'2761641934'
p2014
(lp2015
(VBURGLARY
p2016
I11786
tp2017
a(VBURGLARY
p2018
I13436
tp2019
asS'2761794301'
p2020
(lp2021
(g1388
I13758
tp2022
a(g1390
I18290
tp2023
a(g1392
I25764
tp2024
a(g1394
I49649
tp2025
asS'3273383618'
p2026
(lp2027
(VGRAND LARCENY
p2028
I56513
tp2029
asS'2714246345'
p2030
(lp2031
(g250
I12908
tp2032
a(g252
I43936
tp2033
a(g254
I46219
tp2034
asS'42431201'
p2035
(lp2036
(VGRAND LARCENY OF MOTOR VEHICLE
p2037
I6821
tp2038
a(VROBBERY
p2039
I58402
tp2040
asS'42435398'
p2041
(lp2042
(VGRAND LARCENY OF MOTOR VEHICLE
p2043
I14409
tp2044
a(VGRAND LARCENY
p2045
I39752
tp2046
a(VGRAND LARCENY
p2047
I48476
tp2048
asS'42431203'
p2049
(lp2050
(VFELONY ASSAULT
p2051
I34112
tp2052
a(VGRAND LARCENY
p2053
I49236
tp2054
asS'2762435889'
p2055
(lp2056
(VFELONY ASSAULT
p2057
I54589
tp2058
asS'42435395'
p2059
(lp2060
(VFELONY ASSAULT
p2061
I14998
tp2062
a(VROBBERY
p2063
I56745
tp2064
a(VGRAND LARCENY
p2065
I59354
tp2066
asS'2141026499'
p2067
(lp2068
(g1827
I23631
tp2069
asS'2765491903'
p2070
(lp2071
(g286
I4795
tp2072
asS'2765536883'
p2073
(lp2074
(g772
I22803
tp2075
asS'2761694309'
p2076
(lp2077
(g396
I53688
tp2078
a(g398
I57191
tp2079
asS'419367965'
p2080
(lp2081
(g831
I15087
tp2082
a(g833
I58493
tp2083
asS'2765719195'
p2084
(lp2085
(VROBBERY
p2086
I1861
tp2087
a(VRAPE
p2088
I30783
tp2089
a(VGRAND LARCENY
p2090
I52559
tp2091
asS'2765466421'
p2092
(lp2093
(g1835
I2149
tp2094
asS'2765466426'
p2095
(lp2096
(g1835
I2149
tp2097
asS'2765719190'
p2098
(lp2099
(g2086
I1861
tp2100
a(g2088
I30783
tp2101
a(g2090
I52559
tp2102
asS'592002457'
p2103
(lp2104
(VBURGLARY
p2105
I16028
tp2106
a(VROBBERY
p2107
I20902
tp2108
asS'2714226401'
p2109
(lp2110
(g1917
I26623
tp2111
asS'42438973'
p2112
(lp2113
(VGRAND LARCENY
p2114
I7023
tp2115
asS'419361013'
p2116
(lp2117
(VGRAND LARCENY
p2118
I9560
tp2119
asS'2765719928'
p2120
(lp2121
(g250
I12908
tp2122
a(g252
I43936
tp2123
a(g254
I46219
tp2124
asS'2765719925'
p2125
(lp2126
(g250
I12908
tp2127
a(g252
I43936
tp2128
a(g254
I46219
tp2129
asS'2768450397'
p2130
(lp2131
(VFELONY ASSAULT
p2132
I51244
tp2133
asS'2761520429'
p2134
(lp2135
(g381
I25839
tp2136
a(g383
I47589
tp2137
a(g385
I60043
tp2138
asS'2762535586'
p2139
(lp2140
(VROBBERY
p2141
I44613
tp2142
a(VFELONY ASSAULT
p2143
I44655
tp2144
asS'2947964860'
p2145
(lp2146
(g1962
I14614
tp2147
a(g1964
I40059
tp2148
asS'2714245858'
p2149
(lp2150
(g145
I12065
tp2151
asS'1739790417'
p2152
(lp2153
(VGRAND LARCENY
p2154
I18212
tp2155
a(VGRAND LARCENY
p2156
I53090
tp2157
asS'2714245874'
p2158
(lp2159
(g145
I12065
tp2160
asS'419361906'
p2161
(lp2162
(VGRAND LARCENY
p2163
I35477
tp2164
asS'2761503407'
p2165
(lp2166
(g790
I17977
tp2167
asS'2762471407'
p2168
(lp2169
(g131
I60119
tp2170
asS'42446728'
p2171
(lp2172
(g1993
I31567
tp2173
asS'2714216819'
p2174
(lp2175
(VROBBERY
p2176
I15864
tp2177
a(VGRAND LARCENY
p2178
I16656
tp2179
a(VGRAND LARCENY
p2180
I29721
tp2181
a(VROBBERY
p2182
I46626
tp2183
asS'42446721'
p2184
(lp2185
(VROBBERY
p2186
I48492
tp2187
asS'42446723'
p2188
(lp2189
(g1661
I58437
tp2190
asS'2714216811'
p2191
(lp2192
(g624
I15874
tp2193
a(g626
I28235
tp2194
a(g628
I32796
tp2195
a(g630
I35139
tp2196
a(g632
I50836
tp2197
a(g634
I55014
tp2198
a(g636
I55791
tp2199
asS'2714216817'
p2200
(lp2201
(g2176
I15864
tp2202
a(g2178
I16656
tp2203
a(g2180
I29721
tp2204
a(g2182
I46626
tp2205
asS'2762525692'
p2206
(lp2207
(g1157
I50841
tp2208
a(g1159
I56544
tp2209
asS'2765416716'
p2210
(lp2211
(g1349
I8659
tp2212
a(g1351
I17843
tp2213
a(g1353
I47532
tp2214
a(g1355
I60040
tp2215
asS'2761657576'
p2216
(lp2217
(VFELONY ASSAULT
p2218
I10862
tp2219
a(VGRAND LARCENY
p2220
I34780
tp2221
asS'2761579148'
p2222
(lp2223
(VFELONY ASSAULT
p2224
I50617
tp2225
asS'2761503408'
p2226
(lp2227
(g790
I17977
tp2228
asS'2761781284'
p2229
(lp2230
(g573
I9642
tp2231
a(g575
I37866
tp2232
a(g577
I41218
tp2233
a(g579
I54280
tp2234
a(g581
I55008
tp2235
asS'419359778'
p2236
(lp2237
(g831
I15087
tp2238
a(g833
I58493
tp2239
asS'2339998338'
p2240
(lp2241
(g573
I9642
tp2242
a(g575
I37866
tp2243
a(g577
I41218
tp2244
a(g579
I54280
tp2245
a(g581
I55008
tp2246
asS'42428782'
p2247
(lp2248
(g1266
I2369
tp2249
a(g1268
I15110
tp2250
a(g1270
I23976
tp2251
a(g1272
I48332
tp2252
asS'2765364636'
p2253
(lp2254
(g454
I17574
tp2255
a(g456
I18389
tp2256
a(g458
I29202
tp2257
a(g460
I38750
tp2258
a(g462
I52161
tp2259
asS'2762316571'
p2260
(lp2261
(VGRAND LARCENY
p2262
I534
tp2263
a(VGRAND LARCENY
p2264
I26590
tp2265
asS'2761772617'
p2266
(lp2267
(g230
I33521
tp2268
asS'2012627846'
p2269
(lp2270
(VROBBERY
p2271
I15173
tp2272
a(VFELONY ASSAULT
p2273
I15756
tp2274
a(VFELONY ASSAULT
p2275
I40495
tp2276
asS'2012627848'
p2277
(lp2278
(g670
I6551
tp2279
a(g672
I23411
tp2280
a(g674
I23709
tp2281
a(g676
I40658
tp2282
a(g678
I59355
tp2283
asS'2761652049'
p2284
(lp2285
(VGRAND LARCENY
p2286
I1205
tp2287
a(VGRAND LARCENY
p2288
I50034
tp2289
asS'2761829894'
p2290
(lp2291
(g1542
I29345
tp2292
a(g1544
I35549
tp2293
a(g1546
I46561
tp2294
a(g1548
I50838
tp2295
asS'42429552'
p2296
(lp2297
(VFELONY ASSAULT
p2298
I6859
tp2299
asS'2765567295'
p2300
(lp2301
(g1644
I10710
tp2302
asS'2761394684'
p2303
(lp2304
(VGRAND LARCENY
p2305
I45374
tp2306
asS'2765363774'
p2307
(lp2308
(g980
I5543
tp2309
a(g982
I37634
tp2310
a(g984
I39398
tp2311
a(g986
I42818
tp2312
a(g988
I45454
tp2313
asS'2765483363'
p2314
(lp2315
(g1446
I29523
tp2316
a(g1448
I30296
tp2317
asS'42445215'
p2318
(lp2319
(VGRAND LARCENY
p2320
I48176
tp2321
asS'2541754729'
p2322
(lp2323
(g1631
I31650
tp2324
a(g1633
I40032
tp2325
a(g1635
I40269
tp2326
a(g1637
I58734
tp2327
asS'2762362865'
p2328
(lp2329
(VGRAND LARCENY
p2330
I997
tp2331
a(VFELONY ASSAULT
p2332
I9340
tp2333
a(VROBBERY
p2334
I39277
tp2335
a(VBURGLARY
p2336
I41622
tp2337
asS'2765449932'
p2338
(lp2339
(g7
I20186
tp2340
a(g9
I24888
tp2341
a(g11
I30229
tp2342
a(g13
I47167
tp2343
asS'2761651234'
p2344
(lp2345
(g2016
I11786
tp2346
a(g2018
I13436
tp2347
asS'2761651232'
p2348
(lp2349
(g2016
I11786
tp2350
a(g2018
I13436
tp2351
asS'2761499983'
p2352
(lp2353
(g342
I51186
tp2354
a(g344
I53299
tp2355
asS'3099327950'
p2356
(lp2357
(VFELONY ASSAULT
p2358
I14833
tp2359
a(VGRAND LARCENY
p2360
I24222
tp2361
asS'3099327952'
p2362
(lp2363
(g1376
I24078
tp2364
a(g1378
I31488
tp2365
a(g1380
I40170
tp2366
a(g1382
I48863
tp2367
a(g1384
I59794
tp2368
asS'2761499987'
p2369
(lp2370
(g342
I51186
tp2371
a(g344
I53299
tp2372
asS'2339755382'
p2373
(lp2374
(g1835
I2149
tp2375
asS'3099327957'
p2376
(lp2377
(g2320
I48176
tp2378
asS'2761780672'
p2379
(lp2380
(g361
I15951
tp2381
a(g363
I46226
tp2382
asS'419361168'
p2383
(lp2384
(g1556
I12140
tp2385
asS'42449840'
p2386
(lp2387
(VGRAND LARCENY
p2388
I21889
tp2389
asS'2765467305'
p2390
(lp2391
(VROBBERY
p2392
I33270
tp2393
asS'2761503523'
p2394
(lp2395
(g1420
I46231
tp2396
asS'2555972138'
p2397
(lp2398
(g1147
I39065
tp2399
a(g1149
I55325
tp2400
asS'42453220'
p2401
(lp2402
(g2358
I14833
tp2403
a(g2360
I24222
tp2404
asS'2765483523'
p2405
(lp2406
(VGRAND LARCENY
p2407
I7832
tp2408
a(VFELONY ASSAULT
p2409
I13963
tp2410
asS'419365201'
p2411
(lp2412
(VGRAND LARCENY
p2413
I3160
tp2414
asS'2765267242'
p2415
(lp2416
(g1921
I17578
tp2417
a(g1923
I26067
tp2418
asS'2762329738'
p2419
(lp2420
(g482
I49809
tp2421
asS'2762526675'
p2422
(lp2423
(g659
I2704
tp2424
a(g661
I46841
tp2425
asS'42439486'
p2426
(lp2427
(VFELONY ASSAULT
p2428
I31951
tp2429
a(VGRAND LARCENY
p2430
I32467
tp2431
asS'42439489'
p2432
(lp2433
(VFELONY ASSAULT
p2434
I32622
tp2435
asS'42437188'
p2436
(lp2437
(VROBBERY
p2438
I15005
tp2439
a(VGRAND LARCENY
p2440
I24311
tp2441
asS'2762328811'
p2442
(lp2443
(g238
I17220
tp2444
a(g240
I34104
tp2445
asS'42435364'
p2446
(lp2447
(g724
I6804
tp2448
a(g726
I14548
tp2449
a(g728
I22854
tp2450
a(g730
I23454
tp2451
asS'2714217554'
p2452
(lp2453
(g746
I16265
tp2454
asS'42447285'
p2455
(lp2456
(VROBBERY
p2457
I23884
tp2458
asS'419360746'
p2459
(lp2460
(g1424
I14779
tp2461
asS'2765492805'
p2462
(lp2463
(g1330
I3069
tp2464
a(g1332
I16361
tp2465
a(g1334
I53689
tp2466
asS'2714244982'
p2467
(lp2468
(g1946
I4169
tp2469
a(g1948
I22112
tp2470
a(g1950
I35411
tp2471
asS'2714217237'
p2472
(lp2473
(g1665
I19788
tp2474
a(g1667
I25181
tp2475
a(g1669
I44174
tp2476
asS'2767404690'
p2477
(lp2478
(VFELONY ASSAULT
p2479
I13222
tp2480
a(VGRAND LARCENY
p2481
I13886
tp2482
a(VBURGLARY
p2483
I30150
tp2484
asS'419363892'
p2485
(lp2486
(VROBBERY
p2487
I5479
tp2488
asS'2761780984'
p2489
(lp2490
(g1748
I46295
tp2491
asS'2762444118'
p2492
(lp2493
(g1714
I55835
tp2494
asS'561035333'
p2495
(lp2496
(g1310
I58818
tp2497
asS'2762451214'
p2498
(lp2499
(g500
I8482
tp2500
a(g502
I9177
tp2501
a(g504
I12764
tp2502
a(g506
I18764
tp2503
a(g508
I21367
tp2504
a(g510
I21369
tp2505
a(g512
I24442
tp2506
a(g514
I53415
tp2507
asS'2765492275'
p2508
(lp2509
(g1398
I21730
tp2510
a(g1400
I34830
tp2511
a(g1402
I36035
tp2512
a(g1404
I41684
tp2513
asS'2762305749'
p2514
(lp2515
(g282
I41539
tp2516
asS'561035331'
p2517
(lp2518
(g1266
I2369
tp2519
a(g1268
I15110
tp2520
a(g1270
I23976
tp2521
a(g1272
I48332
tp2522
asS'561035330'
p2523
(lp2524
(g1814
I22995
tp2525
asS'2761534824'
p2526
(lp2527
(VFELONY ASSAULT
p2528
I13076
tp2529
asS'561035337'
p2530
(lp2531
(g734
I26779
tp2532
a(g736
I40602
tp2533
asS'561035336'
p2534
(lp2535
(g1631
I31650
tp2536
a(g1633
I40032
tp2537
a(g1635
I40269
tp2538
a(g1637
I58734
tp2539
asS'2761594502'
p2540
(lp2541
(g410
I11785
tp2542
a(g412
I51486
tp2543
asS'2761527685'
p2544
(lp2545
(g1516
I38574
tp2546
asS'2761444406'
p2547
(lp2548
(g103
I19339
tp2549
asS'42446164'
p2550
(lp2551
(VFELONY ASSAULT
p2552
I6453
tp2553
a(VRAPE
p2554
I15182
tp2555
asS'2762444064'
p2556
(lp2557
(g1714
I55835
tp2558
asS'42446169'
p2559
(lp2560
(VGRAND LARCENY
p2561
I24236
tp2562
asS'2761533891'
p2563
(lp2564
(g107
I22129
tp2565
asS'2762351498'
p2566
(lp2567
(g1729
I10136
tp2568
a(g1731
I28755
tp2569
a(g1733
I38195
tp2570
a(g1735
I39138
tp2571
a(g1737
I42562
tp2572
a(g1739
I43752
tp2573
a(g1741
I53030
tp2574
asS'2761499979'
p2575
(lp2576
(g342
I51186
tp2577
a(g344
I53299
tp2578
asS'2900407700'
p2579
(lp2580
(g2457
I23884
tp2581
asS'1061531575'
p2582
(lp2583
(g1875
I23143
tp2584
asS'2761570587'
p2585
(lp2586
(VGRAND LARCENY
p2587
I28174
tp2588
asS'2057103430'
p2589
(lp2590
(g326
I14795
tp2591
a(g328
I15693
tp2592
a(g330
I23244
tp2593
a(g332
I23987
tp2594
a(g334
I40136
tp2595
a(g336
I48936
tp2596
a(g338
I59433
tp2597
asS'42443406'
p2598
(lp2599
(VFELONY ASSAULT
p2600
I31443
tp2601
asS'2761694330'
p2602
(lp2603
(g396
I53688
tp2604
a(g398
I57191
tp2605
asS'2761564600'
p2606
(lp2607
(g1206
I5174
tp2608
a(g1208
I55262
tp2609
asS'419363159'
p2610
(lp2611
(VBURGLARY
p2612
I35844
tp2613
a(VFELONY ASSAULT
p2614
I44171
tp2615
a(VGRAND LARCENY
p2616
I44822
tp2617
a(VGRAND LARCENY
p2618
I45891
tp2619
a(VFELONY ASSAULT
p2620
I45902
tp2621
a(VFELONY ASSAULT
p2622
I53247
tp2623
asS'2765492770'
p2624
(lp2625
(g1330
I3069
tp2626
a(g1332
I16361
tp2627
a(g1334
I53689
tp2628
asS'2796440499'
p2629
(lp2630
(g1655
I17659
tp2631
a(g1657
I53007
tp2632
asS'42446161'
p2633
(lp2634
(VFELONY ASSAULT
p2635
I31809
tp2636
asS'2541754762'
p2637
(lp2638
(g1631
I31650
tp2639
a(g1633
I40032
tp2640
a(g1635
I40269
tp2641
a(g1637
I58734
tp2642
asS'2765537200'
p2643
(lp2644
(g430
I10371
tp2645
a(g432
I49877
tp2646
asS'2765537205'
p2647
(lp2648
(g430
I10371
tp2649
a(g432
I49877
tp2650
asS'2765537204'
p2651
(lp2652
(g430
I10371
tp2653
a(g432
I49877
tp2654
asS'2765537209'
p2655
(lp2656
(g430
I10371
tp2657
a(g432
I49877
tp2658
asS'2796453900'
p2659
(lp2660
(VGRAND LARCENY
p2661
I2071
tp2662
a(VGRAND LARCENY
p2663
I13964
tp2664
asS'2762363145'
p2665
(lp2666
(g367
I34839
tp2667
asS'2796453905'
p2668
(lp2669
(g2661
I2071
tp2670
a(g2663
I13964
tp2671
asS'42448278'
p2672
(lp2673
(VROBBERY
p2674
I6970
tp2675
asS'2765491790'
p2676
(lp2677
(g286
I4795
tp2678
asS'2762408734'
p2679
(lp2680
(VGRAND LARCENY
p2681
I25436
tp2682
asS'3374117597'
p2683
(lp2684
(VBURGLARY
p2685
I19076
tp2686
asS'2796453645'
p2687
(lp2688
(g77
I58187
tp2689
asS'2765467340'
p2690
(lp2691
(g2392
I33270
tp2692
asS'2762554690'
p2693
(lp2694
(g1059
I5339
tp2695
a(g1061
I17899
tp2696
a(g1063
I26361
tp2697
a(g1065
I56093
tp2698
asS'2762525740'
p2699
(lp2700
(g1157
I50841
tp2701
a(g1159
I56544
tp2702
asS'2761444812'
p2703
(lp2704
(g103
I19339
tp2705
asS'2762471387'
p2706
(lp2707
(g131
I60119
tp2708
asS'2761520532'
p2709
(lp2710
(g375
I5261
tp2711
a(g377
I28395
tp2712
asS'2012627855'
p2713
(lp2714
(g1500
I59188
tp2715
asS'2762471542'
p2716
(lp2717
(g131
I60119
tp2718
asS'2761737455'
p2719
(lp2720
(VROBBERY
p2721
I8136
tp2722
a(VMURDER
p2723
I22532
tp2724
asS'2761722117'
p2725
(lp2726
(VBURGLARY
p2727
I10598
tp2728
a(VFELONY ASSAULT
p2729
I30234
tp2730
a(VFELONY ASSAULT
p2731
I30906
tp2732
a(VFELONY ASSAULT
p2733
I44467
tp2734
asS'2762514647'
p2735
(lp2736
(g416
I58683
tp2737
asS'2762526750'
p2738
(lp2739
(g145
I12065
tp2740
asS'2796607425'
p2741
(lp2742
(VGRAND LARCENY
p2743
I42751
tp2744
asS'2761651208'
p2745
(lp2746
(g2016
I11786
tp2747
a(g2018
I13436
tp2748
asS'2761773431'
p2749
(lp2750
(g552
I42494
tp2751
asS'419367000'
p2752
(lp2753
(g831
I15087
tp2754
a(g833
I58493
tp2755
asS'2761694321'
p2756
(lp2757
(g396
I53688
tp2758
a(g398
I57191
tp2759
asS'2762451858'
p2760
(lp2761
(g470
I29042
tp2762
asS'1506445794'
p2763
(lp2764
(g2661
I2071
tp2765
a(g2663
I13964
tp2766
asS'1506445797'
p2767
(lp2768
(g213
I39914
tp2769
asS'42438121'
p2770
(lp2771
(VGRAND LARCENY OF MOTOR VEHICLE
p2772
I34609
tp2773
a(VFELONY ASSAULT
p2774
I49523
tp2775
a(VFELONY ASSAULT
p2776
I48902
tp2777
asS'2761533827'
p2778
(lp2779
(g375
I5261
tp2780
a(g377
I28395
tp2781
asS'2761503411'
p2782
(lp2783
(g790
I17977
tp2784
asS'2767404902'
p2785
(lp2786
(VGRAND LARCENY OF MOTOR VEHICLE
p2787
I30833
tp2788
asS'2761503413'
p2789
(lp2790
(g790
I17977
tp2791
asS'42426374'
p2792
(lp2793
(g49
I618
tp2794
a(g51
I13437
tp2795
a(g53
I16803
tp2796
a(g55
I20742
tp2797
a(g57
I32677
tp2798
a(g59
I40208
tp2799
a(g61
I48695
tp2800
a(g63
I58368
tp2801
asS'2762329587'
p2802
(lp2803
(g123
I7416
tp2804
asS'2765417029'
p2805
(lp2806
(g1528
I7417
tp2807
a(g1530
I8569
tp2808
a(g1532
I30533
tp2809
a(g1534
I59969
tp2810
asS'2762328606'
p2811
(lp2812
(VFELONY ASSAULT
p2813
I12513
tp2814
asS'2555972144'
p2815
(lp2816
(g1147
I39065
tp2817
a(g1149
I55325
tp2818
asS'42443819'
p2819
(lp2820
(VROBBERY
p2821
I6443
tp2822
asS'42434384'
p2823
(lp2824
(g2271
I15173
tp2825
a(g2273
I15756
tp2826
a(g2275
I40495
tp2827
a(VFELONY ASSAULT
p2828
I41988
tp2829
asS'2761794279'
p2830
(lp2831
(g1388
I13758
tp2832
a(g1390
I18290
tp2833
a(g1392
I25764
tp2834
a(g1394
I49649
tp2835
asS'2765363861'
p2836
(lp2837
(g1088
I30298
tp2838
asS'2761444593'
p2839
(lp2840
(g1903
I19862
tp2841
a(g1905
I22221
tp2842
a(g1907
I34702
tp2843
a(g1909
I38350
tp2844
asS'42435387'
p2845
(lp2846
(VROBBERY
p2847
I6108
tp2848
asS'2765520198'
p2849
(lp2850
(VFELONY ASSAULT
p2851
I2851
tp2852
a(VFELONY ASSAULT
p2853
I13744
tp2854
a(VROBBERY
p2855
I35368
tp2856
asS'3269867926'
p2857
(lp2858
(g711
I31529
tp2859
asS'42435388'
p2860
(lp2861
(VROBBERY
p2862
I6794
tp2863
asS'2762526645'
p2864
(lp2865
(g659
I2704
tp2866
a(g661
I46841
tp2867
asS'2765719947'
p2868
(lp2869
(g250
I12908
tp2870
a(g252
I43936
tp2871
a(g254
I46219
tp2872
asS'2765492236'
p2873
(lp2874
(g1398
I21730
tp2875
a(g1400
I34830
tp2876
a(g1402
I36035
tp2877
a(g1404
I41684
tp2878
asS'42440125'
p2879
(lp2880
(VGRAND LARCENY OF MOTOR VEHICLE
p2881
I40391
tp2882
asS'2765395042'
p2883
(lp2884
(g685
I36101
tp2885
a(g687
I41615
tp2886
a(g689
I53249
tp2887
asS'419364237'
p2888
(lp2889
(VFELONY ASSAULT
p2890
I16
tp2891
a(VBURGLARY
p2892
I4174
tp2893
a(VFELONY ASSAULT
p2894
I56657
tp2895
asS'42440122'
p2896
(lp2897
(VGRAND LARCENY OF MOTOR VEHICLE
p2898
I5862
tp2899
asS'2761815406'
p2900
(lp2901
(VBURGLARY
p2902
I11486
tp2903
a(VFELONY ASSAULT
p2904
I16353
tp2905
a(VBURGLARY
p2906
I19812
tp2907
asS'1506591535'
p2908
(lp2909
(g178
I15338
tp2910
asS'2338757151'
p2911
(lp2912
(VFELONY ASSAULT
p2913
I26195
tp2914
a(VFELONY ASSAULT
p2915
I37248
tp2916
asS'42433165'
p2917
(lp2918
(VROBBERY
p2919
I3336
tp2920
a(VROBBERY
p2921
I31535
tp2922
asS'2762329197'
p2923
(lp2924
(VFELONY ASSAULT
p2925
I8573
tp2926
asS'2313403599'
p2927
(lp2928
(VROBBERY
p2929
I12580
tp2930
a(VFELONY ASSAULT
p2931
I17601
tp2932
a(VFELONY ASSAULT
p2933
I38356
tp2934
a(VFELONY ASSAULT
p2935
I41990
tp2936
a(VFELONY ASSAULT
p2937
I52565
tp2938
asS'1506445837'
p2939
(lp2940
(g1266
I2369
tp2941
a(g1268
I15110
tp2942
a(g1270
I23976
tp2943
a(g1272
I48332
tp2944
asS'2761734330'
p2945
(lp2946
(g1440
I27591
tp2947
a(g1442
I36990
tp2948
asS'2714244544'
p2949
(lp2950
(g170
I22731
tp2951
a(g172
I43263
tp2952
a(g174
I44823
tp2953
asS'419366775'
p2954
(lp2955
(VGRAND LARCENY
p2956
I4456
tp2957
a(VGRAND LARCENY
p2958
I28245
tp2959
asS'2765520514'
p2960
(lp2961
(VGRAND LARCENY OF MOTOR VEHICLE
p2962
I1264
tp2963
a(VFELONY ASSAULT
p2964
I1659
tp2965
a(VROBBERY
p2966
I9643
tp2967
a(VFELONY ASSAULT
p2968
I20522
tp2969
a(VGRAND LARCENY
p2970
I59824
tp2971
asS'42442117'
p2972
(lp2973
(VROBBERY
p2974
I23892
tp2975
asS'2714217466'
p2976
(lp2977
(g746
I16265
tp2978
asS'2762451216'
p2979
(lp2980
(g500
I8482
tp2981
a(g502
I9177
tp2982
a(g504
I12764
tp2983
a(g506
I18764
tp2984
a(g508
I21367
tp2985
a(g510
I21369
tp2986
a(g512
I24442
tp2987
a(g514
I53415
tp2988
asS'2768450389'
p2989
(lp2990
(g2132
I51244
tp2991
asS'2765719935'
p2992
(lp2993
(g250
I12908
tp2994
a(g252
I43936
tp2995
a(g254
I46219
tp2996
asS'2340007170'
p2997
(lp2998
(VGRAND LARCENY
p2999
I21583
tp3000
a(VGRAND LARCENY
p3001
I42631
tp3002
asS'2714245842'
p3003
(lp3004
(g145
I12065
tp3005
asS'2947964858'
p3006
(lp3007
(VBURGLARY
p3008
I46864
tp3009
asS'2013632984'
p3010
(lp3011
(g1376
I24078
tp3012
a(g1378
I31488
tp3013
a(g1380
I40170
tp3014
a(g1382
I48863
tp3015
a(g1384
I59794
tp3016
asS'419366091'
p3017
(lp3018
(VFELONY ASSAULT
p3019
I18107
tp3020
a(VROBBERY
p3021
I46218
tp3022
asS'2714245848'
p3023
(lp3024
(g145
I12065
tp3025
asS'2762442421'
p3026
(lp3027
(g17
I10133
tp3028
a(g19
I17077
tp3029
a(g21
I21296
tp3030
a(g23
I29792
tp3031
a(g25
I50319
tp3032
a(g27
I54284
tp3033
asS'2761652030'
p3034
(lp3035
(g2286
I1205
tp3036
a(g2288
I50034
tp3037
asS'42445843'
p3038
(lp3039
(VBURGLARY
p3040
I38756
tp3041
asS'2762525687'
p3042
(lp3043
(g1157
I50841
tp3044
a(g1159
I56544
tp3045
asS'2761594532'
p3046
(lp3047
(g410
I11785
tp3048
a(g412
I51486
tp3049
asS'2761663746'
p3050
(lp3051
(g837
I9191
tp3052
a(g839
I13066
tp3053
a(g841
I13067
tp3054
a(g843
I13683
tp3055
a(g845
I19944
tp3056
a(g847
I36382
tp3057
a(g849
I41454
tp3058
a(g851
I44642
tp3059
a(g853
I51054
tp3060
asS'42442571'
p3061
(lp3062
(VROBBERY
p3063
I23501
tp3064
asS'2714217769'
p3065
(lp3066
(VGRAND LARCENY
p3067
I40848
tp3068
asS'2765755894'
p3069
(lp3070
(g650
I11045
tp3071
a(g652
I42890
tp3072
asS'2796448564'
p3073
(lp3074
(VBURGLARY
p3075
I16861
tp3076
a(VFELONY ASSAULT
p3077
I19084
tp3078
a(VGRAND LARCENY
p3079
I37097
tp3080
a(VGRAND LARCENY OF MOTOR VEHICLE
p3081
I53123
tp3082
asS'42428838'
p3083
(lp3084
(g1631
I31650
tp3085
a(g1633
I40032
tp3086
a(g1635
I40269
tp3087
a(g1637
I58734
tp3088
asS'2761502169'
p3089
(lp3090
(g875
I19404
tp3091
asS'2761502166'
p3092
(lp3093
(g875
I19404
tp3094
asS'2761502164'
p3095
(lp3096
(g875
I19404
tp3097
asS'2761502162'
p3098
(lp3099
(g875
I19404
tp3100
asS'2761502163'
p3101
(lp3102
(g875
I19404
tp3103
asS'2765364140'
p3104
(lp3105
(g980
I5543
tp3106
a(g982
I37634
tp3107
a(g984
I39398
tp3108
a(g986
I42818
tp3109
a(g988
I45454
tp3110
asS'2761772854'
p3111
(lp3112
(g197
I8563
tp3113
a(g199
I16734
tp3114
a(g201
I29561
tp3115
a(g203
I42812
tp3116
asS'2762525700'
p3117
(lp3118
(g1157
I50841
tp3119
a(g1159
I56544
tp3120
asS'2765491529'
p3121
(lp3122
(g2407
I7832
tp3123
a(g2409
I13963
tp3124
asS'42441903'
p3125
(lp3126
(VGRAND LARCENY
p3127
I41079
tp3128
asS'42435343'
p3129
(lp3130
(VGRAND LARCENY
p3131
I32251
tp3132
asS'2762471507'
p3133
(lp3134
(VROBBERY
p3135
I27518
tp3136
asS'2762471461'
p3137
(lp3138
(VROBBERY
p3139
I7495
tp3140
a(VGRAND LARCENY
p3141
I19415
tp3142
a(VFELONY ASSAULT
p3143
I52633
tp3144
asS'2762362870'
p3145
(lp3146
(g2330
I997
tp3147
a(g2332
I9340
tp3148
a(g2334
I39277
tp3149
a(g2336
I41622
tp3150
asS'1775693480'
p3151
(lp3152
(g207
I48978
tp3153
a(g209
I59576
tp3154
asS'2541754764'
p3155
(lp3156
(g1875
I23143
tp3157
asS'2761553023'
p3158
(lp3159
(g396
I53688
tp3160
a(g398
I57191
tp3161
asS'2762451672'
p3162
(lp3163
(g470
I29042
tp3164
asS'419366526'
p3165
(lp3166
(VROBBERY
p3167
I13065
tp3168
as.