(dp0
I1504153604
(lp1
VGRAND LARCENY
p2
aVFELONY ASSAULT
p3
asI2765483350
(lp4
VGRAND LARCENY
p5
aVFELONY ASSAULT
p6
asI42426374
(lp7
VFELONY ASSAULT
p8
aVFELONY ASSAULT
p9
aVFELONY ASSAULT
p10
aVFELONY ASSAULT
p11
aVGRAND LARCENY
p12
aVROBBERY
p13
aVGRAND LARCENY
p14
aVGRAND LARCENY
p15
asI2765492236
(lp16
VFELONY ASSAULT
p17
aVGRAND LARCENY OF MOTOR VEHICLE
p18
aVGRAND LARCENY
p19
aVBURGLARY
p20
asI2796453905
(lp21
VGRAND LARCENY
p22
aVGRAND LARCENY
p23
asI42436627
(lp24
VROBBERY
p25
aVFELONY ASSAULT
p26
asI1504153622
(lp27
VROBBERY
p28
asI2765492249
(lp29
g17
ag18
ag19
ag20
asI2762526750
(lp30
VBURGLARY
p31
asI2762526752
(lp32
g31
asI2762526755
(lp33
g31
asI2761781284
(lp34
VGRAND LARCENY
p35
aVBURGLARY
p36
aVROBBERY
p37
aVGRAND LARCENY
p38
aVGRAND LARCENY
p39
asI2762471461
(lp40
VROBBERY
p41
aVGRAND LARCENY
p42
aVFELONY ASSAULT
p43
asI2762526765
(lp44
g31
asI410368051
(lp45
VGRAND LARCENY
p46
asI2765492287
(lp47
g17
ag18
ag19
ag20
asI561035330
(lp48
VROBBERY
p49
asI561035331
(lp50
VGRAND LARCENY
p51
aVGRAND LARCENY
p52
aVGRAND LARCENY
p53
aVGRAND LARCENY
p54
asI561035333
(lp55
VGRAND LARCENY
p56
asI2057103430
(lp57
VROBBERY
p58
aVROBBERY
p59
aVGRAND LARCENY
p60
aVROBBERY
p61
aVGRAND LARCENY
p62
aVGRAND LARCENY
p63
aVROBBERY
p64
asI561035336
(lp65
VRAPE
p66
aVGRAND LARCENY
p67
aVGRAND LARCENY
p68
aVGRAND LARCENY
p69
asI561035337
(lp70
g2
ag3
asI1739790417
(lp71
VGRAND LARCENY
p72
aVGRAND LARCENY
p73
asI2761578579
(lp74
VGRAND LARCENY
p75
aVBURGLARY
p76
aVGRAND LARCENY
p77
aVGRAND LARCENY
p78
asI419367000
(lp79
VFELONY ASSAULT
p80
aVGRAND LARCENY
p81
asI2761578600
(lp82
g75
ag76
ag77
ag78
asI2761773161
(lp83
VROBBERY
p84
asI1705982060
(lp85
VGRAND LARCENY
p86
aVROBBERY
p87
aVFELONY ASSAULT
p88
asI2761516436
(lp89
VFELONY ASSAULT
p90
asI2761781360
(lp91
g35
ag36
ag37
ag38
ag39
asI2762471542
(lp92
VGRAND LARCENY
p93
asI2767405177
(lp94
VFELONY ASSAULT
p95
asI2761668737
(lp96
VGRAND LARCENY
p97
aVGRAND LARCENY
p98
asI2767405191
(lp99
g95
asI2765492770
(lp100
VGRAND LARCENY
p101
aVGRAND LARCENY
p102
aVFELONY ASSAULT
p103
asI1061531802
(lp104
VGRAND LARCENY
p105
aVGRAND LARCENY
p106
asI1705982107
(lp107
VRAPE
p108
aVGRAND LARCENY
p109
aVGRAND LARCENY
p110
aVGRAND LARCENY
p111
aVGRAND LARCENY
p112
aVGRAND LARCENY
p113
asI1061531815
(lp114
g86
ag87
ag88
asI2761734323
(lp115
VGRAND LARCENY
p116
aVFELONY ASSAULT
p117
asI2762471609
(lp118
g93
asI2761734330
(lp119
g116
ag117
asI2141026497
(lp120
VGRAND LARCENY
p121
asI2141026499
(lp122
VFELONY ASSAULT
p123
asI2141026500
(lp124
VFELONY ASSAULT
p125
asI2141026506
(lp126
VBURGLARY
p127
asI2761651234
(lp128
VBURGLARY
p129
aVBURGLARY
p130
asI2141026510
(lp131
VGRAND LARCENY
p132
asI2762444064
(lp133
VROBBERY
p134
asI2765719928
(lp135
VBURGLARY
p136
aVGRAND LARCENY
p137
aVRAPE
p138
asI2762305749
(lp139
VBURGLARY
p140
asI2762514647
(lp141
VGRAND LARCENY
p142
asI2762526756
(lp143
g31
asI2762305758
(lp144
g140
asI2768439523
(lp145
VGRAND LARCENY
p146
asI42453220
(lp147
VFELONY ASSAULT
p148
aVGRAND LARCENY
p149
asI2765467305
(lp150
VROBBERY
p151
asI1695379690
(lp152
VROBBERY
p153
asI645106863
(lp154
g66
ag67
ag68
ag69
asI2765400304
(lp155
VGRAND LARCENY OF MOTOR VEHICLE
p156
aVFELONY ASSAULT
p157
aVROBBERY
p158
aVROBBERY
p159
asI2765400306
(lp160
g156
ag157
ag158
ag159
asI419361013
(lp161
VGRAND LARCENY
p162
asI2762363127
(lp163
VBURGLARY
p164
asI2765719935
(lp165
g136
ag137
ag138
asI2765416700
(lp166
VROBBERY
p167
aVFELONY ASSAULT
p168
aVBURGLARY
p169
aVGRAND LARCENY
p170
asI2765416708
(lp171
g167
ag168
ag169
ag170
asI419363077
(lp172
VFELONY ASSAULT
p173
aVBURGLARY
p174
asI1825848790
(lp175
VROBBERY
p176
aVGRAND LARCENY OF MOTOR VEHICLE
p177
aVRAPE
p178
asI2761722121
(lp179
VFELONY ASSAULT
p180
asI2765483363
(lp181
g5
ag6
asI2765416716
(lp182
g167
ag168
ag169
ag170
asI2762451214
(lp183
VGRAND LARCENY
p184
aVGRAND LARCENY
p185
aVGRAND LARCENY
p186
aVFELONY ASSAULT
p187
aVBURGLARY
p188
aVFELONY ASSAULT
p189
aVBURGLARY
p190
aVFELONY ASSAULT
p191
asI2762451216
(lp192
g184
ag185
ag186
ag187
ag188
ag189
ag190
ag191
asI2762451672
(lp193
VFELONY ASSAULT
p194
asI2762451219
(lp195
g184
ag185
ag186
ag187
ag188
ag189
ag190
ag191
asI2762514711
(lp196
g142
asI2761570587
(lp197
VGRAND LARCENY
p198
asI2765719941
(lp199
g136
ag137
ag138
asI2761781538
(lp200
VGRAND LARCENY
p201
aVFELONY ASSAULT
p202
aVGRAND LARCENY
p203
aVROBBERY
p204
asI2339797283
(lp205
VGRAND LARCENY
p206
asI2761734436
(lp207
VROBBERY
p208
aVGRAND LARCENY
p209
aVGRAND LARCENY
p210
aVBURGLARY
p211
aVFELONY ASSAULT
p212
aVROBBERY
p213
aVFELONY ASSAULT
p214
asI2765267242
(lp215
VBURGLARY
p216
aVGRAND LARCENY
p217
asI2761734443
(lp218
g208
ag209
ag210
ag211
ag212
ag213
ag214
asI2541754670
(lp219
g49
asI2714216753
(lp220
VFELONY ASSAULT
p221
aVBURGLARY
p222
aVBURGLARY
p223
aVGRAND LARCENY
p224
aVFELONY ASSAULT
p225
aVGRAND LARCENY
p226
aVFELONY ASSAULT
p227
asI2765364275
(lp228
VGRAND LARCENY
p229
aVGRAND LARCENY
p230
aVROBBERY
p231
aVGRAND LARCENY
p232
aVBURGLARY
p233
asI2765322556
(lp234
g216
ag217
asI42438973
(lp235
VGRAND LARCENY
p236
asI42428742
(lp237
g86
ag87
ag88
asI42443085
(lp238
VROBBERY
p239
aVROBBERY
p240
asI42434895
(lp241
VGRAND LARCENY
p242
asI42443088
(lp243
VROBBERY
p244
asI2761533777
(lp245
VBURGLARY
p246
aVFELONY ASSAULT
p247
asI2762363220
(lp248
g164
asI419363159
(lp249
VBURGLARY
p250
aVFELONY ASSAULT
p251
aVGRAND LARCENY
p252
aVGRAND LARCENY
p253
aVFELONY ASSAULT
p254
aVFELONY ASSAULT
p255
asI42447199
(lp256
VROBBERY
p257
aVGRAND LARCENY
p258
aVFELONY ASSAULT
p259
aVFELONY ASSAULT
p260
aVGRAND LARCENY
p261
asI42428770
(lp262
g49
asI42447206
(lp263
VROBBERY
p264
aVROBBERY
p265
asI2541754729
(lp266
g66
ag67
ag68
ag69
asI2714216811
(lp267
g221
ag222
ag223
ag224
ag225
ag226
ag227
asI42428782
(lp268
g51
ag52
ag53
ag54
asI2714216817
(lp269
VROBBERY
p270
aVGRAND LARCENY
p271
aVGRAND LARCENY
p272
aVROBBERY
p273
asI2714216819
(lp274
g270
ag271
ag272
ag273
asI2761773428
(lp275
VFELONY ASSAULT
p276
asI2765719925
(lp277
g136
ag137
ag138
asI2761773431
(lp278
g276
asI2541754744
(lp279
g56
asI42432889
(lp280
g127
asI2541754749
(lp281
g2
ag3
asI42428799
(lp282
g56
asI2761533827
(lp283
VFELONY ASSAULT
p284
aVGRAND LARCENY
p285
asI2761527685
(lp286
VBURGLARY
p287
asI2541754762
(lp288
g66
ag67
ag68
ag69
asI2765719947
(lp289
g136
ag137
ag138
asI2541754764
(lp290
VROBBERY
p291
asI419361168
(lp292
VGRAND LARCENY
p293
asI2765719954
(lp294
g136
ag137
ag138
asI3269867926
(lp295
VGRAND LARCENY OF MOTOR VEHICLE
p296
asI2339998103
(lp297
VGRAND LARCENY
p298
aVGRAND LARCENY
p299
aVBURGLARY
p300
asI42445215
(lp301
VGRAND LARCENY
p302
asI2761772912
(lp303
VFELONY ASSAULT
p304
aVFELONY ASSAULT
p305
aVGRAND LARCENY
p306
aVFELONY ASSAULT
p307
asI3208415302
(lp308
g5
ag6
asI42428838
(lp309
g66
ag67
ag68
ag69
asI2796453617
(lp310
VGRAND LARCENY
p311
asI42447275
(lp312
VFELONY ASSAULT
p313
asI2765322674
(lp314
VGRAND LARCENY
p315
asI42447285
(lp316
VROBBERY
p317
asI2761564600
(lp318
g246
ag247
asI2541754809
(lp319
g86
ag87
ag88
asI2541754811
(lp320
g51
ag52
ag53
ag54
asI2761644476
(lp321
VGRAND LARCENY
p322
aVBURGLARY
p323
asI3099326116
(lp324
VGRAND LARCENY
p325
asI42447295
(lp326
VGRAND LARCENY
p327
asI2761533891
(lp328
VROBBERY
p329
asI2013632984
(lp330
VFELONY ASSAULT
p331
aVFELONY ASSAULT
p332
aVROBBERY
p333
aVGRAND LARCENY
p334
aVGRAND LARCENY
p335
asI419367391
(lp336
VGRAND LARCENY OF MOTOR VEHICLE
p337
aVFELONY ASSAULT
p338
aVBURGLARY
p339
aVGRAND LARCENY
p340
asI1506445794
(lp341
g22
ag23
asI1506445797
(lp342
VGRAND LARCENY
p343
asI2761394671
(lp344
VGRAND LARCENY
p345
aVGRAND LARCENY
p346
asI2762471507
(lp347
VROBBERY
p348
asI2761394684
(lp349
VGRAND LARCENY
p350
asI1506445821
(lp351
VROBBERY
p352
aVGRAND LARCENY
p353
aVROBBERY
p354
aVROBBERY
p355
asI2761734659
(lp356
VROBBERY
p357
aVGRAND LARCENY
p358
asI2761734667
(lp359
g357
ag358
asI1506445837
(lp360
g51
ag52
ag53
ag54
asI2765400152
(lp361
VBURGLARY
p362
aVROBBERY
p363
aVROBBERY
p364
asI42449427
(lp365
VGRAND LARCENY
p366
aVGRAND LARCENY
p367
asI2762514964
(lp368
g142
asI42437142
(lp369
VGRAND LARCENY OF MOTOR VEHICLE
p370
asI2765492759
(lp371
g101
ag102
ag103
asI2762328606
(lp372
VFELONY ASSAULT
p373
asI2338757151
(lp374
VFELONY ASSAULT
p375
aVFELONY ASSAULT
p376
asI2762328610
(lp377
VFELONY ASSAULT
p378
aVROBBERY
p379
asI42441254
(lp380
VGRAND LARCENY
p381
asI42441257
(lp382
g343
asI2555972138
(lp383
VGRAND LARCENY
p384
aVBURGLARY
p385
asI2765417005
(lp386
VGRAND LARCENY OF MOTOR VEHICLE
p387
aVROBBERY
p388
aVBURGLARY
p389
aVGRAND LARCENY
p390
asI42441263
(lp391
VGRAND LARCENY
p392
asI2555972144
(lp393
g384
ag385
asI42437177
(lp394
g331
ag332
ag333
ag334
ag335
asI2765363774
(lp395
g229
ag230
ag231
ag232
ag233
asI2555972160
(lp396
g384
ag385
asI2761534017
(lp397
VGRAND LARCENY
p398
aVFELONY ASSAULT
p399
aVBURGLARY
p400
aVROBBERY
p401
asI2555972163
(lp402
g384
ag385
asI42437188
(lp403
VROBBERY
p404
aVGRAND LARCENY
p405
asI2761734725
(lp406
VROBBERY
p407
asI2761552454
(lp408
g287
asI2761734727
(lp409
g407
asI2761822793
(lp410
g276
asI2761579084
(lp411
VFELONY ASSAULT
p412
asI42441295
(lp413
VGRAND LARCENY OF MOTOR VEHICLE
p414
asI42441299
(lp415
VGRAND LARCENY
p416
asI42437204
(lp417
VGRAND LARCENY
p418
asI2765467065
(lp419
VGRAND LARCENY
p420
aVGRAND LARCENY
p421
aVFELONY ASSAULT
p422
asI42437211
(lp423
VROBBERY
p424
asI42440122
(lp425
VGRAND LARCENY OF MOTOR VEHICLE
p426
asI470209122
(lp427
VROBBERY
p428
asI42445426
(lp429
VROBBERY
p430
aVFELONY ASSAULT
p431
asI2761780672
(lp432
VFELONY ASSAULT
p433
aVBURGLARY
p434
asI2339998338
(lp435
g35
ag36
ag37
ag38
ag39
asI2762351723
(lp436
VROBBERY
p437
aVROBBERY
p438
aVGRAND LARCENY OF MOTOR VEHICLE
p439
aVFELONY ASSAULT
p440
aVGRAND LARCENY
p441
aVFELONY ASSAULT
p442
aVFELONY ASSAULT
p443
asI42433161
(lp444
VROBBERY
p445
aVFELONY ASSAULT
p446
asI2013622922
(lp447
VROBBERY
p448
aVGRAND LARCENY
p449
aVGRAND LARCENY
p450
aVGRAND LARCENY
p451
aVFELONY ASSAULT
p452
aVROBBERY
p453
asI42433163
(lp454
VFELONY ASSAULT
p455
asI2761579148
(lp456
VFELONY ASSAULT
p457
asI42433165
(lp458
VROBBERY
p459
aVROBBERY
p460
asI42431118
(lp461
VGRAND LARCENY
p462
asI2013622929
(lp463
g58
ag59
ag60
ag61
ag62
ag63
ag64
asI2761380499
(lp464
g345
ag346
asI42443413
(lp465
VGRAND LARCENY
p466
aVFELONY ASSAULT
p467
asI419367582
(lp468
VGRAND LARCENY
p469
aVGRAND LARCENY
p470
aVGRAND LARCENY
p471
aVGRAND LARCENY
p472
asI42435231
(lp473
VGRAND LARCENY
p474
asI42443426
(lp475
VROBBERY
p476
asI2762472099
(lp477
VROBBERY
p478
aVFELONY ASSAULT
p479
asI2761694321
(lp480
VGRAND LARCENY OF MOTOR VEHICLE
p481
aVGRAND LARCENY
p482
asI2761503403
(lp483
VGRAND LARCENY
p484
asI2761503407
(lp485
g484
asI2761503408
(lp486
g484
asI2761503410
(lp487
g484
asI2761503411
(lp488
g484
asI2761503413
(lp489
g484
asI2339801785
(lp490
g206
asI2714245822
(lp491
g31
asI2768450241
(lp492
VGRAND LARCENY OF MOTOR VEHICLE
p493
asI2714245832
(lp494
g31
asI2765449932
(lp495
VGRAND LARCENY
p496
aVFELONY ASSAULT
p497
aVBURGLARY
p498
aVFELONY ASSAULT
p499
asI2762472144
(lp500
VBURGLARY
p501
asI42431186
(lp502
VGRAND LARCENY
p503
aVROBBERY
p504
aVGRAND LARCENY
p505
asI42431187
(lp506
VGRAND LARCENY
p507
asI3099327950
(lp508
g148
ag149
asI2714245848
(lp509
g31
asI2761503524
(lp510
VGRAND LARCENY
p511
asI2714245850
(lp512
g31
asI3374117597
(lp513
VBURGLARY
p514
asI42431201
(lp515
VGRAND LARCENY OF MOTOR VEHICLE
p516
aVROBBERY
p517
asI2714245858
(lp518
g31
asI42431203
(lp519
VFELONY ASSAULT
p520
aVGRAND LARCENY
p521
asI2762572518
(lp522
VBURGLARY
p523
asI2761794279
(lp524
g337
ag338
ag339
ag340
asI2714245864
(lp525
g31
asI2714245867
(lp526
g31
asI2762451692
(lp527
g194
asI2714245874
(lp528
g31
asI2765720309
(lp529
VGRAND LARCENY
p530
aVGRAND LARCENY OF MOTOR VEHICLE
p531
asI2761794301
(lp532
g337
ag338
ag339
ag340
asI3099327957
(lp533
g302
asI42435331
(lp534
VFELONY ASSAULT
p535
asI2714245892
(lp536
g31
asI42435333
(lp537
VGRAND LARCENY OF MOTOR VEHICLE
p538
asI42435335
(lp539
g58
ag59
ag60
ag61
ag62
ag63
ag64
asI2762566653
(lp540
VFELONY ASSAULT
p541
asI2714217228
(lp542
VGRAND LARCENY
p543
aVFELONY ASSAULT
p544
aVGRAND LARCENY
p545
asI42435343
(lp546
VGRAND LARCENY
p547
asI2761822994
(lp548
g298
ag299
ag300
asI2714245907
(lp549
g31
asI2339709716
(lp550
VBURGLARY
p551
asI2714217237
(lp552
g543
ag544
ag545
asI2762316571
(lp553
VGRAND LARCENY
p554
aVGRAND LARCENY
p555
asI2762408734
(lp556
VGRAND LARCENY
p557
asI42435359
(lp558
VGRAND LARCENY
p559
aVROBBERY
p560
asI2761503523
(lp561
g511
asI42435364
(lp562
g352
ag353
ag354
ag355
asI1506591535
(lp563
g428
asI2796448564
(lp564
VBURGLARY
p565
aVFELONY ASSAULT
p566
aVGRAND LARCENY
p567
aVGRAND LARCENY OF MOTOR VEHICLE
p568
asI2765466421
(lp569
VFELONY ASSAULT
p570
asI2765466426
(lp571
g570
asI42435387
(lp572
VROBBERY
p573
asI42435388
(lp574
VROBBERY
p575
asI42439486
(lp576
VFELONY ASSAULT
p577
aVGRAND LARCENY
p578
asI42439489
(lp579
VFELONY ASSAULT
p580
asI42439490
(lp581
VROBBERY
p582
asI42435395
(lp583
VFELONY ASSAULT
p584
aVROBBERY
p585
aVGRAND LARCENY
p586
asI2761395013
(lp587
VROBBERY
p588
aVBURGLARY
p589
asI42435398
(lp590
VGRAND LARCENY OF MOTOR VEHICLE
p591
aVGRAND LARCENY
p592
aVGRAND LARCENY
p593
asI42439497
(lp594
VGRAND LARCENY
p595
asI42439498
(lp596
VGRAND LARCENY
p597
asI2765450063
(lp598
g496
ag497
ag498
ag499
asI42439506
(lp599
VGRAND LARCENY OF MOTOR VEHICLE
p600
asI2714180435
(lp601
VROBBERY
p602
asI2768450389
(lp603
VFELONY ASSAULT
p604
asI2768450397
(lp605
g604
asI2762535805
(lp606
VFELONY ASSAULT
p607
asI2762535810
(lp608
VFELONY ASSAULT
p609
aVROBBERY
p610
asI2762535811
(lp611
g607
asI2012627846
(lp612
VROBBERY
p613
aVFELONY ASSAULT
p614
aVFELONY ASSAULT
p615
asI419363719
(lp616
VGRAND LARCENY
p617
aVFELONY ASSAULT
p618
aVROBBERY
p619
asI2012627848
(lp620
g257
ag258
ag259
ag260
ag261
asI2765755894
(lp621
g530
ag531
asI2762351498
(lp622
g437
ag438
ag439
ag440
ag441
ag442
ag443
asI2012627855
(lp623
g242
asI2762451858
(lp624
g194
asI2796440473
(lp625
VBURGLARY
p626
aVBURGLARY
p627
asI2761534372
(lp628
g284
ag285
asI2765417386
(lp629
VGRAND LARCENY
p630
aVFELONY ASSAULT
p631
aVROBBERY
p632
aVGRAND LARCENY
p633
asI2765364140
(lp634
g229
ag230
ag231
ag232
ag233
asI42449840
(lp635
VGRAND LARCENY
p636
asI2762329587
(lp637
VROBBERY
p638
asI2761704375
(lp639
VFELONY ASSAULT
p640
asI2761500150
(lp641
g484
asI1748991482
(lp642
VFELONY ASSAULT
p643
asI2762344956
(lp644
VFELONY ASSAULT
p645
aVROBBERY
p646
aVGRAND LARCENY
p647
asI42441895
(lp648
VGRAND LARCENY OF MOTOR VEHICLE
p649
asI2762566643
(lp650
g541
asI2762525687
(lp651
VROBBERY
p652
aVFELONY ASSAULT
p653
asI2714217466
(lp654
VBURGLARY
p655
asI2762443771
(lp656
g134
asI2762525692
(lp657
g652
ag653
asI2761593853
(lp658
VGRAND LARCENY
p659
aVGRAND LARCENY
p660
aVFELONY ASSAULT
p661
asI2761593854
(lp662
g659
ag660
ag661
asI2714217474
(lp663
g655
asI2762525700
(lp664
g652
ag653
asI2761651208
(lp665
g129
ag130
asI42445843
(lp666
VBURGLARY
p667
asI2762525716
(lp668
g652
ag653
asI42439855
(lp669
g132
asI419367965
(lp670
g80
ag81
asI2761651232
(lp671
g129
ag130
asI419359778
(lp672
g80
ag81
asI2765364264
(lp673
g229
ag230
ag231
ag232
ag233
asI42443817
(lp674
VROBBERY
p675
asI42443819
(lp676
VROBBERY
p677
asI2762525740
(lp678
g652
ag653
asI42443821
(lp679
VGRAND LARCENY
p680
asI42456110
(lp681
VGRAND LARCENY
p682
asI42443824
(lp683
VGRAND LARCENY
p684
asI42456115
(lp685
VGRAND LARCENY
p686
aVROBBERY
p687
asI419363892
(lp688
VROBBERY
p689
asI2761444406
(lp690
g90
asI419365943
(lp691
VROBBERY
p692
aVROBBERY
p693
asI2765364280
(lp694
g229
ag230
ag231
ag232
ag233
asI2765364282
(lp695
g229
ag230
ag231
ag232
ag233
asI2765415494
(lp696
g630
ag631
ag632
ag633
asI2714217554
(lp697
g655
asI2761698391
(lp698
VGRAND LARCENY OF MOTOR VEHICLE
p699
aVBURGLARY
p700
aVGRAND LARCENY
p701
asI2761579608
(lp702
VGRAND LARCENY
p703
aVROBBERY
p704
asI2765395033
(lp705
VFELONY ASSAULT
p706
aVFELONY ASSAULT
p707
aVFELONY ASSAULT
p708
asI2762572890
(lp709
VROBBERY
p710
aVROBBERY
p711
aVGRAND LARCENY
p712
aVGRAND LARCENY
p713
asI2765395038
(lp714
g706
ag707
ag708
asI2761694304
(lp715
g481
ag482
asI2765395042
(lp716
g706
ag707
ag708
asI2761694309
(lp717
g481
ag482
asI2761694312
(lp718
g481
ag482
asI2761694315
(lp719
g481
ag482
asI2762329197
(lp720
VFELONY ASSAULT
p721
asI2761694319
(lp722
g481
ag482
asI42429552
(lp723
VFELONY ASSAULT
p724
asI419361905
(lp725
VROBBERY
p726
asI419361906
(lp727
VGRAND LARCENY
p728
asI2761694323
(lp729
g481
ag482
asI2761694327
(lp730
g481
ag482
asI2761694328
(lp731
g481
ag482
asI2762351737
(lp732
VROBBERY
p733
aVROBBERY
p734
aVFELONY ASSAULT
p735
aVGRAND LARCENY
p736
asI2761694330
(lp737
g481
ag482
asI2761553023
(lp738
g481
ag482
asI2761593994
(lp739
g659
ag660
ag661
asI42450061
(lp740
VFELONY ASSAULT
p741
asI2765483156
(lp742
g570
asI2761495703
(lp743
VGRAND LARCENY OF MOTOR VEHICLE
p744
aVGRAND LARCENY
p745
asI419361953
(lp746
g445
ag446
asI2761495719
(lp747
g744
ag745
asI2765492805
(lp748
g101
ag102
ag103
asI42441903
(lp749
VGRAND LARCENY
p750
asI2714244272
(lp751
VGRAND LARCENY
p752
asI42435763
(lp753
g448
ag449
ag450
ag451
ag452
ag453
asI1807940791
(lp754
VROBBERY
p755
asI42441913
(lp756
VROBBERY
p757
aVGRAND LARCENY
p758
asI2765734090
(lp759
VGRAND LARCENY OF MOTOR VEHICLE
p760
aVGRAND LARCENY
p761
aVFELONY ASSAULT
p762
asI2714246345
(lp763
g136
ag137
ag138
asI419366091
(lp764
VFELONY ASSAULT
p765
aVROBBERY
p766
asI2762565154
(lp767
g501
asI42433743
(lp768
g123
asI2714246356
(lp769
g136
ag137
ag138
asI2714246357
(lp770
g136
ag137
ag138
asI2714246360
(lp771
g136
ag137
ag138
asI2714246363
(lp772
g136
ag137
ag138
asI2714246365
(lp773
g136
ag137
ag138
asI592002270
(lp774
g291
asI2761395423
(lp775
g75
ag76
ag77
ag78
asI2761395431
(lp776
g75
ag76
ag77
ag78
asI2761657576
(lp777
VFELONY ASSAULT
p778
aVGRAND LARCENY
p779
asI2761737455
(lp780
VROBBERY
p781
aVMURDER
p782
asI2761444593
(lp783
VFELONY ASSAULT
p784
aVBURGLARY
p785
aVGRAND LARCENY
p786
aVGRAND LARCENY
p787
asI419364095
(lp788
VROBBERY
p789
aVFELONY ASSAULT
p790
asI2340007170
(lp791
VGRAND LARCENY
p792
aVGRAND LARCENY
p793
asI2761407749
(lp794
g784
ag785
ag786
ag787
asI2761663752
(lp795
VGRAND LARCENY
p796
aVGRAND LARCENY
p797
aVBURGLARY
p798
aVGRAND LARCENY
p799
aVBURGLARY
p800
aVGRAND LARCENY
p801
aVGRAND LARCENY
p802
aVBURGLARY
p803
aVBURGLARY
p804
asI2900407700
(lp805
g317
asI42429712
(lp806
VROBBERY
p807
asI2761499922
(lp808
VGRAND LARCENY
p809
asI2761520404
(lp810
g176
ag177
ag178
asI2761520405
(lp811
g284
ag285
asI42429718
(lp812
g296
asI2761520408
(lp813
g329
asI2761533999
(lp814
g398
ag399
ag400
ag401
asI2714244380
(lp815
VRAPE
p816
aVROBBERY
p817
aVGRAND LARCENY
p818
asI42437918
(lp819
VROBBERY
p820
asI42429727
(lp821
VROBBERY
p822
asI42437920
(lp823
VGRAND LARCENY
p824
asI42429732
(lp825
g121
asI2714217769
(lp826
VGRAND LARCENY
p827
asI2761678124
(lp828
VGRAND LARCENY
p829
aVGRAND LARCENY
p830
aVBURGLARY
p831
aVBURGLARY
p832
aVGRAND LARCENY
p833
aVFELONY ASSAULT
p834
aVGRAND LARCENY
p835
asI2761520429
(lp836
g176
ag177
ag178
asI2761520431
(lp837
g176
ag177
ag178
asI2762435889
(lp838
VFELONY ASSAULT
p839
asI2714246366
(lp840
g136
ag137
ag138
asI2761499966
(lp841
g744
ag745
asI2761499967
(lp842
g744
ag745
asI2761499968
(lp843
g744
ag745
asI2761499970
(lp844
g744
ag745
asI2761499973
(lp845
g744
ag745
asI2765520198
(lp846
VFELONY ASSAULT
p847
aVFELONY ASSAULT
p848
aVROBBERY
p849
asI2761499976
(lp850
g744
ag745
asI2761499977
(lp851
g744
ag745
asI2761499979
(lp852
g744
ag745
asI2761499980
(lp853
g744
ag745
asI2761499982
(lp854
g744
ag745
asI2761499983
(lp855
g744
ag745
asI42446161
(lp856
VFELONY ASSAULT
p857
asI2761499987
(lp858
g744
ag745
asI42446164
(lp859
VFELONY ASSAULT
p860
aVRAPE
p861
asI2762444118
(lp862
g134
asI42446169
(lp863
VGRAND LARCENY
p864
asI592002396
(lp865
VFELONY ASSAULT
p866
asI2762526051
(lp867
g652
ag653
asI2761534824
(lp868
VFELONY ASSAULT
p869
asI2762513770
(lp870
g478
ag479
asI2761815406
(lp871
VBURGLARY
p872
aVFELONY ASSAULT
p873
aVBURGLARY
p874
asI2762554738
(lp875
VGRAND LARCENY
p876
aVBURGLARY
p877
aVGRAND LARCENY
p878
aVROBBERY
p879
asI595314037
(lp880
VGRAND LARCENY OF MOTOR VEHICLE
p881
asI2339755382
(lp882
g570
asI2714245842
(lp883
g31
asI2762452350
(lp884
VFELONY ASSAULT
p885
aVGRAND LARCENY
p886
aVFELONY ASSAULT
p887
aVBURGLARY
p888
aVGRAND LARCENY
p889
aVGRAND LARCENY
p890
asI42442117
(lp891
VROBBERY
p892
asI2762452359
(lp893
g885
ag886
ag887
ag888
ag889
ag890
asI2765364616
(lp894
VGRAND LARCENY
p895
aVGRAND LARCENY
p896
aVRAPE
p897
aVGRAND LARCENY
p898
aVBURGLARY
p899
asI2762452361
(lp900
g885
ag886
ag887
ag888
ag889
ag890
asI419364237
(lp901
VFELONY ASSAULT
p902
aVBURGLARY
p903
aVFELONY ASSAULT
p904
asI42441283
(lp905
VGRAND LARCENY
p906
aVGRAND LARCENY
p907
asI2761520532
(lp908
g284
ag285
asI2762452373
(lp909
g885
ag886
ag887
ag888
ag889
ag890
asI42448278
(lp910
VROBBERY
p911
asI592002457
(lp912
VBURGLARY
p913
aVROBBERY
p914
asI2765364636
(lp915
g895
ag896
ag897
ag898
ag899
asI2762452381
(lp916
g885
ag886
ag887
ag888
ag889
ag890
asI2765417029
(lp917
g387
ag388
ag389
ag390
asI2762515015
(lp918
g142
asI2762329525
(lp919
VGRAND LARCENY
p920
aVROBBERY
p921
aVROBBERY
p922
aVROBBERY
p923
asI2296577465
(lp924
g242
asI2761520570
(lp925
g329
asI42440125
(lp926
VGRAND LARCENY OF MOTOR VEHICLE
p927
asI2714244544
(lp928
g816
ag817
ag818
asI2762513862
(lp929
VGRAND LARCENY OF MOTOR VEHICLE
p930
aVROBBERY
p931
aVBURGLARY
p932
asI1506445734
(lp933
g2
ag3
asI595314122
(lp934
g392
asI2761444812
(lp935
g90
asI2765450702
(lp936
VGRAND LARCENY
p937
aVGRAND LARCENY OF MOTOR VEHICLE
p938
asI3099327952
(lp939
g331
ag332
ag333
ag334
ag335
asI2761502162
(lp940
g809
asI2761502163
(lp941
g809
asI2761502164
(lp942
g809
asI2761444821
(lp943
g90
asI2761502166
(lp944
g809
asI2761502169
(lp945
g809
asI3099327962
(lp946
g822
asI2761502171
(lp947
g809
asI3099327964
(lp948
g8
ag9
ag10
ag11
ag12
ag13
ag14
ag15
asI2762575325
(lp949
g710
ag711
ag712
ag713
asI2761502174
(lp950
g809
asI2761502175
(lp951
g809
asI2761502176
(lp952
g809
asI2714244583
(lp953
g816
ag817
ag818
asI42438121
(lp954
VGRAND LARCENY OF MOTOR VEHICLE
p955
aVFELONY ASSAULT
p956
aVFELONY ASSAULT
p957
asI2765755884
(lp958
g530
ag531
asI2762575341
(lp959
g710
ag711
ag712
ag713
asI2761500146
(lp960
g484
asI2761500147
(lp961
g484
asI2761500148
(lp962
g484
asI2761618934
(lp963
g173
ag174
asI2762470904
(lp964
VROBBERY
p965
aVGRAND LARCENY
p966
aVBURGLARY
p967
aVROBBERY
p968
asI2761500153
(lp969
g484
asI2761500154
(lp970
g484
asI2761500156
(lp971
g484
asI2761500157
(lp972
g484
asI2765483523
(lp973
VGRAND LARCENY
p974
aVFELONY ASSAULT
p975
asI2761829894
(lp976
VROBBERY
p977
aVFELONY ASSAULT
p978
aVROBBERY
p979
aVROBBERY
p980
asI2542108169
(lp981
g105
ag106
asI2762329612
(lp982
g638
asI2761663746
(lp983
g796
ag797
ag798
ag799
ag800
ag801
ag802
ag803
ag804
asI2765450769
(lp984
VFELONY ASSAULT
p985
asI2761500178
(lp986
VGRAND LARCENY
p987
asI2765719061
(lp988
VFELONY ASSAULT
p989
aVFELONY ASSAULT
p990
aVFELONY ASSAULT
p991
asI2714226198
(lp992
VGRAND LARCENY
p993
asI1638063643
(lp994
g51
ag52
ag53
ag54
asI2762329563
(lp995
g638
asI2761722117
(lp996
VBURGLARY
p997
aVFELONY ASSAULT
p998
aVFELONY ASSAULT
p999
aVFELONY ASSAULT
p1000
asI2761704368
(lp1001
g640
asI2339993122
(lp1002
VBURGLARY
p1003
aVGRAND LARCENY
p1004
asI2762565164
(lp1005
g501
asI2313403599
(lp1006
VROBBERY
p1007
aVFELONY ASSAULT
p1008
aVFELONY ASSAULT
p1009
aVFELONY ASSAULT
p1010
aVFELONY ASSAULT
p1011
asI2761734749
(lp1012
g407
asI1638063665
(lp1013
g86
ag87
ag88
asI2796440499
(lp1014
g626
ag627
asI2762363145
(lp1015
g164
asI2765537205
(lp1016
VGRAND LARCENY
p1017
aVGRAND LARCENY
p1018
asI2762425921
(lp1019
VROBBERY
p1020
aVFELONY ASSAULT
p1021
asI2765491782
(lp1022
VGRAND LARCENY OF MOTOR VEHICLE
p1023
asI2761829959
(lp1024
g977
ag978
ag979
ag980
asI2765491784
(lp1025
g1023
asI2761772617
(lp1026
g84
asI42437218
(lp1027
VROBBERY
p1028
asI2765491790
(lp1029
g1023
asI2339792469
(lp1030
g645
ag646
ag647
asI2765520470
(lp1031
VGRAND LARCENY
p1032
asI2762395230
(lp1033
VFELONY ASSAULT
p1034
aVROBBERY
p1035
aVBURGLARY
p1036
asI2555971167
(lp1037
VFELONY ASSAULT
p1038
aVFELONY ASSAULT
p1039
aVFELONY ASSAULT
p1040
aVGRAND LARCENY
p1041
aVROBBERY
p1042
asI2714226275
(lp1043
VROBBERY
p1044
aVFELONY ASSAULT
p1045
asI2762329702
(lp1046
g638
asI2765536877
(lp1047
VROBBERY
p1048
asI2765536883
(lp1049
g1048
asI42429716
(lp1050
g428
asI2762329724
(lp1051
g638
asI419366526
(lp1052
VROBBERY
p1053
asI2765492275
(lp1054
g17
ag18
ag19
ag20
asI2765520514
(lp1055
VGRAND LARCENY OF MOTOR VEHICLE
p1056
aVFELONY ASSAULT
p1057
aVROBBERY
p1058
aVFELONY ASSAULT
p1059
aVGRAND LARCENY
p1060
asI2761594502
(lp1061
g703
ag704
asI2765416071
(lp1062
VBURGLARY
p1063
aVFELONY ASSAULT
p1064
asI2762514056
(lp1065
g930
ag931
ag932
asI2762329738
(lp1066
VGRAND LARCENY
p1067
asI2762329742
(lp1068
g1067
asI2767404690
(lp1069
VFELONY ASSAULT
p1070
aVGRAND LARCENY
p1071
aVBURGLARY
p1072
asI2765719190
(lp1073
VROBBERY
p1074
aVRAPE
p1075
aVGRAND LARCENY
p1076
asI2762535586
(lp1077
VROBBERY
p1078
aVFELONY ASSAULT
p1079
asI2765719195
(lp1080
g1074
ag1075
ag1076
asI2761594532
(lp1081
g703
ag704
asI2099150501
(lp1082
VFELONY ASSAULT
p1083
asI1775693480
(lp1084
g559
ag560
asI42437916
(lp1085
VGRAND LARCENY
p1086
asI2762442421
(lp1087
g885
ag886
ag887
ag888
ag889
ag890
asI2762581688
(lp1088
VGRAND LARCENY OF MOTOR VEHICLE
p1089
asI2762581690
(lp1090
g1089
asI2765491903
(lp1091
g1023
asI2761772737
(lp1092
g1003
ag1004
asI3273383618
(lp1093
VGRAND LARCENY
p1094
asI2796453900
(lp1095
g22
ag23
asI2762581706
(lp1096
g1089
asI2765467340
(lp1097
g151
asI2762581709
(lp1098
g1089
asI2765491920
(lp1099
g1023
asI2761641685
(lp1100
VRAPE
p1101
aVBURGLARY
p1102
aVROBBERY
p1103
asI2761694941
(lp1104
g699
ag700
ag701
asI2714226401
(lp1105
g551
asI2761694946
(lp1106
g699
ag700
ag701
asI2762575588
(lp1107
g1089
asI2796453613
(lp1108
g311
asI2762395377
(lp1109
VROBBERY
p1110
aVGRAND LARCENY OF MOTOR VEHICLE
p1111
asI2762526675
(lp1112
VGRAND LARCENY
p1113
aVROBBERY
p1114
asI2762466942
(lp1115
VFELONY ASSAULT
p1116
aVROBBERY
p1117
asI2762328811
(lp1118
g378
ag379
asI2761780984
(lp1119
VGRAND LARCENY
p1120
asI2555971325
(lp1121
g1038
ag1039
ag1040
ag1041
ag1042
asI2765491529
(lp1122
g974
ag975
asI2796453645
(lp1123
g311
asI2765733656
(lp1124
g609
ag610
asI2761781031
(lp1125
g1120
asI2761772841
(lp1126
g304
ag305
ag306
ag307
asI2761772845
(lp1127
g304
ag305
ag306
ag307
asI2762467122
(lp1128
VGRAND LARCENY
p1129
aVROBBERY
p1130
aVBURGLARY
p1131
asI2761772854
(lp1132
g304
ag305
ag306
ag307
asI2761772857
(lp1133
g304
ag305
ag306
ag307
asI42442555
(lp1134
VGRAND LARCENY
p1135
asI42442557
(lp1136
VFELONY ASSAULT
p1137
aVGRAND LARCENY
p1138
aVFELONY ASSAULT
p1139
asI2761652030
(lp1140
VGRAND LARCENY
p1141
aVGRAND LARCENY
p1142
asI42442561
(lp1143
VGRAND LARCENY
p1144
asI42442565
(lp1145
g80
ag81
asI42442571
(lp1146
VROBBERY
p1147
asI2761644685
(lp1148
VROBBERY
p1149
aVGRAND LARCENY
p1150
asI42434384
(lp1151
g613
ag614
ag615
aVFELONY ASSAULT
p1152
asI2761652049
(lp1153
g1141
ag1142
asI42442580
(lp1154
g28
asI42443406
(lp1155
VFELONY ASSAULT
p1156
asI2767404902
(lp1157
VGRAND LARCENY OF MOTOR VEHICLE
p1158
asI2724292461
(lp1159
g433
ag434
asI419360624
(lp1160
VGRAND LARCENY
p1161
asI2724292469
(lp1162
g433
ag434
asI2714244982
(lp1163
g989
ag990
ag991
asI419366775
(lp1164
VGRAND LARCENY
p1165
aVGRAND LARCENY
p1166
asI2765567295
(lp1167
g1032
asI419360746
(lp1168
g381
asI2765363861
(lp1169
g315
asI42446721
(lp1170
VROBBERY
p1171
asI42446723
(lp1172
g325
asI42446728
(lp1173
g125
asI2307217293
(lp1174
g293
asI419365201
(lp1175
VGRAND LARCENY
p1176
asI2307217295
(lp1177
VBURGLARY
p1178
asI2765537176
(lp1179
g1017
ag1018
asI419362717
(lp1180
g86
ag87
ag88
asI2762571681
(lp1181
g541
asI2762554690
(lp1182
g876
ag877
ag878
ag879
asI2765537200
(lp1183
g1017
ag1018
asI419366834
(lp1184
g686
ag687
asI2765537204
(lp1185
g1017
ag1018
asI2762526645
(lp1186
g1113
ag1114
asI1061531575
(lp1187
g291
asI2765537209
(lp1188
g1017
ag1018
asI2947964858
(lp1189
VBURGLARY
p1190
asI2765537211
(lp1191
g1017
ag1018
asI2947964860
(lp1192
g25
ag26
asI2762526655
(lp1193
g1113
ag1114
asI2796607425
(lp1194
VGRAND LARCENY
p1195
asI2762526665
(lp1196
g1113
ag1114
asI42435234
(lp1197
VGRAND LARCENY
p1198
asI2761641934
(lp1199
g129
ag130
asI2714230739
(lp1200
VROBBERY
p1201
aVFELONY ASSAULT
p1202
aVGRAND LARCENY
p1203
aVFELONY ASSAULT
p1204
aVFELONY ASSAULT
p1205
asI2762526681
(lp1206
g1113
ag1114
asI2762471387
(lp1207
g93
asI419366878
(lp1208
VGRAND LARCENY
p1209
aVGRAND LARCENY
p1210
asI2761517031
(lp1211
g398
ag399
ag400
ag401
asI2329939944
(lp1212
g343
asI2329939946
(lp1213
g343
asI2714246351
(lp1214
g136
ag137
ag138
asI2762471407
(lp1215
g93
asI2762362865
(lp1216
VGRAND LARCENY
p1217
aVFELONY ASSAULT
p1218
aVROBBERY
p1219
aVBURGLARY
p1220
asI2796453877
(lp1221
VGRAND LARCENY
p1222
asI2762362870
(lp1223
g1217
ag1218
ag1219
ag1220
asI2765400055
(lp1224
VBURGLARY
p1225
aVGRAND LARCENY
p1226
aVROBBERY
p1227
asI2761517048
(lp1228
g398
ag399
ag400
ag401
as.